((dp0
S'arm_dbg_args'
p1
S'-via:"e:\\Documents\\Michiel\\Programmeren\\Marmalade\\MVSStage4\\build_mvsstage4_vc12x\\MVSStage4_vc12x_arm_debug.via" -qemu'
p2
sS'game-icf'
p3
S''
p4
sS'dist'
p5
NsS'csproj'
p6
g4
sS'module_path_append'
p7
NsS'global_path'
p8
S'e:\\documents\\michiel\\programmeren\\marmalade'
p9
sS'system_path'
p10
S'c:\\marmalade\\7.4\\s3e\\makefile_builder'
p11
sS'android_x86_dbg_args'
p12
S'../../tools/DeployTool/DeployTool.exe --dir "e:\\Documents\\Michiel\\Programmeren\\Marmalade\\MVSStage4\\build_mvsstage4_vc12x"'
p13
sS'no-emit'
p14
NsS'arm-float-abi'
p15
g4
sS'arm_rel_rtsm_args'
p16
S'-via:"e:\\Documents\\Michiel\\Programmeren\\Marmalade\\MVSStage4\\build_mvsstage4_vc12x\\MVSStage4_vc12x_arm_release.via" -qemu'
p17
sS'amd64'
p18
NsS'line-width'
p19
I80
sS'gcc_dbg_args'
p20
S'-via:"e:\\Documents\\Michiel\\Programmeren\\Marmalade\\MVSStage4\\build_mvsstage4_vc12x\\MVSStage4_vc12x_gcc_debug.via" -qemu'
p21
sS'android-x86'
p22
NsS'x86_dbg_exe'
p23
S'c:/marmalade/7.4/s3e\\win32\\s3e_simulator_debug.exe'
p24
sS'disable-runtime-checks'
p25
NsS'release'
p26
NsS'no-make'
p27
NsS'xcode-x86-build-settings'
p28
g4
sS'optimise-size'
p29
NsS'output-name-debug'
p30
g4
sS'arm-fpu'
p31
g4
sS'proj_name'
p32
S'MVSStage4_vc12x'
p33
sS'enable-stdinc'
p34
NsS'compiler'
p35
g4
sS'execute'
p36
NsS'compile-static'
p37
NsS'msvc-project'
p38
I01
sS'buildenv'
p39
S'VC12X'
p40
sS'quick'
p41
NsS'module_path'
p42
(lp43
S'C:/Marmalade/7.4/examples/GameTutorial/CPP/modules'
p44
asS'use-release-std-libs'
p45
NsS'using_perforce'
p46
I00
sS'tizen-x86'
p47
NsS'mips-s3e'
p48
NsS's3e-api-lib-name'
p49
g4
sS'ios-no-pic'
p50
NsS'shared-arm-lib'
p51
NsS'arm-cpu'
p52
g4
sS'compile-thumb'
p53
NsS'no-ide'
p54
NsS'msvc-version'
p55
S'6.0'
p56
sS'arm'
p57
NsS'builddir'
p58
g4
sS'compile-debug-as-release'
p59
I0
sS'arm-arch'
p60
g4
sS'brief'
p61
NsS'dll'
p62
NsS'buildenv-toolset'
p63
g4
sS'version'
p64
NsS'ccache'
p65
I0
sS'offline'
p66
NsS'ios-version'
p67
g4
sS'hub_data'
p68
g4
sS'fake_vc_call'
p69
I01
sS'jobs'
p70
I0
sS'linkflags'
p71
NsS'debug'
p72
NsS'xcode-build-order'
p73
g4
sS'gcc_rel_rtsm_args'
p74
S'-via:"e:\\Documents\\Michiel\\Programmeren\\Marmalade\\MVSStage4\\build_mvsstage4_vc12x\\MVSStage4_vc12x_gcc_release.via" -qemu'
p75
sS'done_defaults'
p76
I1
sS'path'
p77
NsS's3e-data-dir'
p78
S'e:/Documents/Michiel/Programmeren/Marmalade/MVSStage4\\data'
p79
sS'enable-exceptions'
p80
NsS'osx-dll'
p81
NsS'extension'
p82
g4
sS'no-vc6'
p83
NsS'non-interactive'
p84
NsS'win32-console'
p85
NsS'dist-format'
p86
g4
sS's3e-force-arch'
p87
NsS'dump_defines'
p88
NsS'use_prebuilt'
p89
NsS'gcc-version'
p90
g4
sS'x86_dbg_args'
p91
S'-via:"e:\\Documents\\Michiel\\Programmeren\\Marmalade\\MVSStage4\\build_mvsstage4_vc12x\\MVSStage4_vc12x_debug.via"'
p92
sS'tizen_x86_dbg_args'
p93
g13
sS'arm-debugger'
p94
g4
sS'use_temp_extension'
p95
NsS'verbose'
p96
I0
sS'log'
p97
NsS'no-strip'
p98
NsS'rebuild'
p99
NsS'win32-simulator-dll'
p100
NsS'strict'
p101
NsS'mips_dbg_args'
p102
g13
sS'enable-global-path'
p103
NsS'cflags'
p104
NsS'dist-dir'
p105
g4
sS'xcode-arm-build-settings'
p106
g4
sS'jflags'
p107
NsS'csprojSDKRefs'
p108
g4
sS'tizen_x86_rel_exe'
p109
S'c:\\marmalade\\7.4\\s3e\\makefile_builder\\tool_launcher.exe'
p110
sS'test-assets'
p111
g4
sS'distcc'
p112
NsS'external-compiler'
p113
NsS'no-distcc'
p114
NsS'preinclude'
p115
NsS'using_sdk'
p116
I01
sS'nologo'
p117
NsS'warn-level'
p118
I2
sS'mips_dbg_exe'
p119
g110
sS'mkb_in'
p120
S'e:/Documents/Michiel/Programmeren/Marmalade/MVSStage4/MVSStage4.mkb'
p121
sS'tizen_x86_dbg_exe'
p122
g110
sS'arm_dbg_exe'
p123
S'c:/marmalade/7.4/s3e\\bin\\armdebug.exe'
p124
sS'csprojDLLRef'
p125
NsS'tizen_x86_rel_args'
p126
g13
sS'android_x86_dbg_exe'
p127
g110
sS'test-config'
p128
g4
sS'list-targets'
p129
NsS'arm_rel_exe'
p130
g110
sS'arm_rel_args'
p131
g13
sS'makedeps'
p132
NsS'android_x86_rel_exe'
p133
g110
sS'default-buildenv'
p134
S'vc12x'
p135
sS'x86_rel_exe'
p136
g24
sS'preprocess-java'
p137
NsS'mips_rel_args'
p138
g13
sS'defines'
p139
NsS'lib'
p140
NsS'global_argv'
p141
(lp142
S'C:\\Marmalade\\7.4\\s3e\\makefile_builder\\mkb.py'
p143
aS'e:/Documents/Michiel/Programmeren/Marmalade/MVSStage4/MVSStage4.mkb'
p144
aS'--buildenv=VC12X'
p145
aS'--fake-vc-call'
p146
aS'--default-buildenv=vc12x'
p147
aS'--msvc-project'
p148
asS'make'
p149
NsS'optimise-speed'
p150
NsS'internal'
p151
NsS'rvct-version'
p152
g4
sS'deploy-only'
p153
NsS'x86'
p154
NsS'deploy'
p155
g4
sS'x86_run_exe'
p156
S'c:/marmalade/7.4/s3e\\win32\\s3e_console.exe'
p157
sS'x86_rel_args'
p158
S'-via:"e:\\Documents\\Michiel\\Programmeren\\Marmalade\\MVSStage4\\build_mvsstage4_vc12x\\MVSStage4_vc12x_release.via"'
p159
sS'gcc_rel_args'
p160
g13
sS'mips'
p161
NsS'xcode-build-settings'
p162
g4
sS'incredibuild'
p163
NsS'strict-compile'
p164
NsS'use-auto-subdirs'
p165
NsS'mips_rel_exe'
p166
g110
sS'android_x86_rel_args'
p167
g13
sS'app-icf'
p168
g4
sS'deployargs'
p169
NsS'iosnativedebug'
p170
NsS'mkf_in'
p171
(lp172
S'c:\\marmalade\\7.4\\modules\\iwutil\\iwutil.mkf'
p173
aS'c:\\marmalade\\7.4\\modules\\third_party\\libjpeg\\libjpeg.mkf'
p174
aS'c:\\marmalade\\7.4\\modules\\third_party\\libpng\\libpng.mkf'
p175
aS'c:\\marmalade\\7.4\\modules\\third_party\\zlib\\zlib.mkf'
p176
asS'strict-mkb'
p177
NsS'executeargs'
p178
NsS'clean'
p179
NsS'no-asm'
p180
NsS'output-name'
p181
g4
sS'no-modules'
p182
NsS'find_define'
p183
g4
s(dp184
S'c:\\marmalade\\7.4\\s3e\\makefile_builder\\plugins\\Emitter.pyc'
p185
F1411758008.0
sS'c:\\marmalade\\7.4\\s3e\\makefile_builder\\templates\\ws8_ext_sln.pyc'
p186
F1411758010.0
sS'c:\\marmalade\\7.4\\s3e\\makefile_builder\\templates\\MainWindow.xib'
p187
F1411756764.0
sS'c:\\marmalade\\7.4\\s3e\\makefile_builder\\templates\\template.suo'
p188
F1411756764.0
sS'c:\\marmalade\\7.4\\s3e\\makefile_builder\\plugins\\xcode4_schememanagement.py'
p189
F1411756764.0
sS'c:\\marmalade\\7.4\\s3e\\makefile_builder\\templates\\ws81_sln.pyc'
p190
F1411758010.0
sS'c:\\marmalade\\7.4\\s3e\\makefile_builder\\templates\\win8_ext_csproj.pyc'
p191
F1411758010.0
sS'c:\\marmalade\\7.4\\s3e\\makefile_builder\\mkb_option.pyc'
p192
F1411758008.0
sS'c:\\marmalade\\7.4\\s3e\\makefile_builder\\plugins\\s3e_xcode.py'
p193
F1411756764.0
sS'c:\\marmalade\\7.4\\s3e\\makefile_builder\\plugins\\s3e_scons.pyc'
p194
F1411758008.0
sS'c:\\marmalade\\7.4\\s3e\\makefile_builder\\templates\\win8_vcxproj.pyc'
p195
F1411758010.0
sS'c:\\marmalade\\7.4\\s3e\\makefile_builder\\plugins\\null.pyc'
p196
F1411758008.0
sS'c:\\marmalade\\7.4\\s3e\\makefile_builder\\templates\\vc8_user.pyc'
p197
F1411758010.0
sS'c:\\marmalade\\7.4\\s3e\\makefile_builder\\templates\\wp81_ext_sln.pyc'
p198
F1411758010.0
sS'c:\\marmalade\\7.4\\s3e\\makefile_builder\\templates\\scons.pyc'
p199
F1411758010.0
sS'c:\\marmalade\\7.4\\s3e\\makefile_builder\\templates\\wp8_ext_csproj.pyc'
p200
F1411758010.0
sS'c:\\marmalade\\7.4\\s3e\\makefile_builder\\templates\\xcode_pbxuser.py'
p201
F1411756766.0
sS'c:\\marmalade\\7.4\\s3e\\makefile_builder\\plugins\\s3e_qmake.py'
p202
F1411756764.0
sS'c:\\marmalade\\7.4\\s3e\\makefile_builder\\plugins\\iphone.pyc'
p203
F1411758010.0
sS'c:\\marmalade\\7.4\\s3e\\makefile_builder\\templates\\ws81_ext_csproj.pyc'
p204
F1411758010.0
sS'c:\\marmalade\\7.4\\s3e\\makefile_builder\\templates\\vc6_opt.pyc'
p205
F1411758010.0
sS'c:\\marmalade\\7.4\\s3e\\makefile_builder\\plugins\\s3e_win8.pyc'
p206
F1411758010.0
sS'c:\\marmalade\\7.4\\s3e\\makefile_builder\\mkb_main.pyc'
p207
F1411758008.0
sS'c:\\marmalade\\7.4\\s3e\\makefile_builder\\templates\\wp8_csproj.pyc'
p208
F1411758010.0
sS'c:\\marmalade\\7.4\\s3e\\makefile_builder\\templates\\win32_vcproj.pyc'
p209
F1411758010.0
sS'c:\\marmalade\\7.4\\s3e\\makefile_builder\\templates\\win8_sln.pyc'
p210
F1411758010.0
sS'c:\\marmalade\\7.4\\s3e\\makefile_builder\\mkb_launcher.exe'
p211
F1411757118.0
sS'c:\\marmalade\\7.4\\s3e\\makefile_builder\\plugins\\osx_xcode.pyc'
p212
F1411758010.0
sS'c:\\marmalade\\7.4\\s3e\\makefile_builder\\plugins'
p213
F1413657746.5508685
sS'c:\\marmalade\\7.4\\s3e\\makefile_builder\\templates\\wp8_csproj_user.pyc'
p214
F1411758010.0
sS'c:\\marmalade\\7.4\\s3e\\makefile_builder\\plugins\\win32_vc6.pyc'
p215
F1411758010.0
sS'c:\\marmalade\\7.4\\s3e\\makefile_builder\\plugins\\s3e_vc6.pyc'
p216
F1411758008.0
sS'c:\\marmalade\\7.4\\s3e\\makefile_builder\\templates\\vc10_user.pyc'
p217
F1411758010.0
sS'c:\\marmalade\\7.4\\s3e\\makefile_builder\\docs\\deprecated.defines.txt'
p218
F1411756764.0
sS'c:\\marmalade\\7.4\\s3e\\makefile_builder\\templates\\wp81_csproj_user.pyc'
p219
F1411758010.0
sS'c:\\marmalade\\7.4\\s3e\\makefile_builder\\templates\\ws81_ext_sln.pyc'
p220
F1411758010.0
sS'c:\\marmalade\\7.4\\s3e\\makefile_builder\\templates\\make.py'
p221
F1411756764.0
sS'c:\\marmalade\\7.4\\s3e\\makefile_builder\\plugins\\wp81_wp81.pyc'
p222
F1411758010.0
sS'c:\\marmalade\\7.4\\s3e\\makefile_builder\\plugins\\s3e_qmake.pyc'
p223
F1411803920.1701696
sS'c:\\marmalade\\7.4\\s3e\\makefile_builder\\templates\\mips_linker_script'
p224
F1411756764.0
sS'c:\\marmalade\\7.4\\s3e\\makefile_builder\\plugins\\deploy.pyc'
p225
F1411758008.0
sS'c:\\marmalade\\7.4\\s3e\\makefile_builder\\plugins\\ws81_ws81.pyc'
p226
F1411758010.0
sS'c:\\marmalade\\7.4\\s3e\\makefile_builder\\mkb.py'
p227
F1411756764.0
sS'c:\\marmalade\\7.4\\s3e\\makefile_builder\\docs\\options.txt'
p228
F1411756764.0
sS'c:\\marmalade\\7.4\\s3e\\makefile_builder\\mkb_parser.pyc'
p229
F1411758008.0
sS'c:\\marmalade\\7.4\\s3e\\makefile_builder\\templates\\qmake_user.py'
p230
F1411756764.0
sS'c:\\marmalade\\7.4\\s3e\\makefile_builder\\docs\\mkb.defines.txt'
p231
F1411756764.0
sS'c:\\marmalade\\7.4\\s3e\\makefile_builder\\deployment.pyc'
p232
F1411758008.0
sS'c:\\marmalade\\7.4\\s3e\\makefile_builder\\plugins\\wp8_wp8.pyc'
p233
F1411758010.0
sS'c:\\marmalade\\7.4\\s3e\\makefile_builder\\plugins\\linux_scons.pyc'
p234
F1411758010.0
sS'c:\\marmalade\\7.4\\s3e\\makefile_builder\\plugins\\s3e_web.pyc'
p235
F1411758008.0
sS'c:\\marmalade\\7.4\\s3e\\makefile_builder\\plugins\\S3EEmitter.pyc'
p236
F1411758008.0
sS'c:\\marmalade\\7.4\\s3e\\makefile_builder\\plugins\\Win8Emitter.pyc'
p237
F1411758010.0
sS'c:\\marmalade\\7.4\\s3e\\makefile_builder\\templates\\xcode4_arm.xcscheme'
p238
F1411756766.0
sS'c:\\marmalade\\7.4\\s3e\\makefile_builder\\plugins\\vc6_utils.pyc'
p239
F1411758010.0
sS'c:\\marmalade\\7.4\\s3e\\makefile_builder\\templates\\wp8_vcxproj.pyc'
p240
F1411758010.0
sS'c:\\marmalade\\7.4\\s3e\\makefile_builder\\templates\\xcode4.xcscheme'
p241
F1411756766.0
sS'c:\\marmalade\\7.4\\s3e\\makefile_builder\\plugins\\MakeEmitter.pyc'
p242
F1411758008.0
sS'c:\\marmalade\\7.4\\s3e\\makefile_builder\\plugins\\java.pyc'
p243
F1411758010.0
sS'c:\\marmalade\\7.4\\s3e\\makefile_builder\\plugins\\XcodeEmitter.pyc'
p244
F1411803919.9116752
sS'c:\\marmalade\\7.4\\s3e\\makefile_builder\\plugins\\XcodeEmitter.py'
p245
F1411756764.0
sS'c:\\marmalade\\7.4\\s3e\\makefile_builder\\mkb_globals.pyc'
p246
F1411758008.0
sS'c:\\marmalade\\7.4\\s3e\\makefile_builder\\tool_launcher.exe'
p247
F1411757118.0
sS'c:\\marmalade\\7.4\\s3e\\makefile_builder\\mkb_util.pyc'
p248
F1411758008.0
sS'c:\\marmalade\\7.4\\s3e\\makefile_builder\\plugins\\xcode4_schememanagement.pyc'
p249
F1411803919.9427035
sS'c:\\marmalade\\7.4\\s3e\\makefile_builder\\templates\\ws8_sln.pyc'
p250
F1411758010.0
sS'c:\\marmalade\\7.4\\s3e\\makefile_builder\\templates\\win32_sln.pyc'
p251
F1411758010.0
sS'c:\\marmalade\\7.4\\s3e\\makefile_builder\\templates\\wp81_ext_csproj.pyc'
p252
F1411758010.0
sS'c:\\marmalade\\7.4\\s3e\\makefile_builder\\plugins\\s3e_wp81.pyc'
p253
F1411758010.0
sS'c:\\marmalade\\7.4\\s3e\\makefile_builder\\plugins\\s3e_wp8.pyc'
p254
F1411758010.0
sS'c:\\marmalade\\7.4\\s3e\\makefile_builder\\templates\\qmake.py'
p255
F1411756764.0
sS'c:\\marmalade\\7.4\\s3e\\makefile_builder\\templates\\gdb_start.txt'
p256
F1411756764.0
sS'c:\\marmalade\\7.4\\s3e\\makefile_builder\\templates'
p257
F1413657746.9110093
sS'c:\\marmalade\\7.4\\s3e\\makefile_builder\\templates\\ws8_ext_csproj.pyc'
p258
F1411758010.0
sS'c:\\marmalade\\7.4\\s3e\\makefile_builder\\templates\\win8_csproj_user.pyc'
p259
F1411758010.0
sS'c:\\marmalade\\7.4\\s3e\\makefile_builder\\templates\\vc7_suo.pyc'
p260
F1411758010.0
sS'c:\\marmalade\\7.4\\s3e\\makefile_builder\\plugins\\VisualStudioEmitter.pyc'
p261
F1411758010.0
sS'c:\\marmalade\\7.4\\s3e\\makefile_builder\\templates\\linker_script'
p262
F1411756764.0
sS'c:\\marmalade\\7.4\\s3e\\makefile_builder\\docs\\deprecated.options.txt'
p263
F1411756764.0
sS'c:\\marmalade\\7.4\\s3e\\makefile_builder\\plugins\\s3e_xcode.pyc'
p264
F1411803920.2749066
sS'c:\\marmalade\\7.4\\s3e\\makefile_builder\\plugins\\s3e_ws8.pyc'
p265
F1411758010.0
sS'c:\\marmalade\\7.4\\s3e\\makefile_builder\\templates\\xcode4_DeployTool.xcscheme'
p266
F1411756766.0
sS'c:\\marmalade\\7.4\\s3e\\makefile_builder\\templates\\ws8_csproj_user.pyc'
p267
F1411758010.0
sS'c:\\marmalade\\7.4\\s3e\\makefile_builder\\plugins\\osx_scons.pyc'
p268
F1411758010.0
sS'c:\\marmalade\\7.4\\s3e\\makefile_builder\\templates\\ws81_csproj.pyc'
p269
F1411758010.0
sS'c:\\marmalade\\7.4\\s3e\\makefile_builder\\templates\\wp8_sln.pyc'
p270
F1411758010.0
sS'c:\\marmalade\\7.4\\s3e\\makefile_builder\\docs'
p271
F1413657747.0451703
sS'c:\\marmalade\\7.4\\s3e\\makefile_builder\\plugins\\ws8_ws8.pyc'
p272
F1411758010.0
sS'c:\\marmalade\\7.4\\s3e\\makefile_builder\\docs\\deployment_options.txt'
p273
F1411756764.0
sS'c:\\marmalade\\7.4\\s3e\\makefile_builder\\templates\\win32_vcxproj_filters.pyc'
p274
F1411758010.0
sS'c:\\marmalade\\7.4\\s3e\\makefile_builder\\templates\\win32_dsw.pyc'
p275
F1411758010.0
sS'c:\\marmalade\\7.4\\s3e\\makefile_builder\\plugins\\s3e_ws81.pyc'
p276
F1411758010.0
sS'c:\\marmalade\\7.4\\s3e\\makefile_builder\\plugins\\SConsEmitter.pyc'
p277
F1411758010.0
sS'c:\\marmalade\\7.4\\s3e\\makefile_builder\\templates\\wp81_vcxproj.pyc'
p278
F1411758010.0
sS'c:\\marmalade\\7.4\\s3e\\makefile_builder\\plugins\\win8_utils.pyc'
p279
F1411758010.0
sS'c:\\marmalade\\7.4\\s3e\\makefile_builder\\templates\\template.opt'
p280
F1411756764.0
sS'c:\\marmalade\\7.4\\s3e\\makefile_builder\\plugins\\vc7_utils.pyc'
p281
F1411758010.0
sS'c:\\marmalade\\7.4\\s3e\\makefile_builder\\templates\\win32_dsp.pyc'
p282
F1411758010.0
sS'c:\\marmalade\\7.4\\s3e\\makefile_builder\\plugins\\s3e_make.pyc'
p283
F1411758008.0
sS'c:\\marmalade\\7.4\\s3e\\makefile_builder\\templates\\rvct_linker_script'
p284
F1411756764.0
sS'c:\\marmalade\\7.4\\s3e\\makefile_builder\\templates\\win8_csproj.pyc'
p285
F1411758010.0
sS'c:\\marmalade\\7.4\\s3e\\makefile_builder\\templates\\xcode.py'
p286
F1411756766.0
sS'c:\\marmalade\\7.4\\s3e\\makefile_builder\\templates\\ws8_vcxproj.pyc'
p287
F1411758010.0
sS'c:\\marmalade\\7.4\\s3e\\makefile_builder\\templates\\wp81_csproj.pyc'
p288
F1411758010.0
sS'c:\\marmalade\\7.4\\s3e\\makefile_builder\\mkb_upstream.pyc'
p289
F1411758008.0
sS'c:\\marmalade\\7.4\\s3e\\makefile_builder\\templates\\win32_vcxproj.pyc'
p290
F1411758010.0
sS'c:\\marmalade\\7.4\\s3e\\makefile_builder\\templates\\ws8_csproj.pyc'
p291
F1411758010.0
sS'c:\\marmalade\\7.4\\s3e\\makefile_builder\\docs\\parse_options.pyc'
p292
F1411758012.0
sS'c:\\marmalade\\7.4\\s3e\\makefile_builder\\templates\\Info.plist'
p293
F1411756764.0
sS'c:\\marmalade\\7.4\\s3e\\makefile_builder\\templates\\wp81_sln.pyc'
p294
F1411758010.0
sS'c:\\marmalade\\7.4\\s3e\\makefile_builder\\templates\\ws81_csproj_user.pyc'
p295
F1411758010.0
sS'c:\\marmalade\\7.4\\s3e\\makefile_builder\\templates\\ws81_vcxproj.pyc'
p296
F1411758010.0
sccopy_reg
_reconstructor
p297
(cmkb_main
MkbFile
p298
c__builtin__
object
p299
Ntp300
Rp301
(dp302
g5
(lp303
sS'target_name'
p304
S'MVSStage4'
p305
sS'current_file'
p306
g121
sS'package_path'
p307
(lp308
sS'post_build'
p309
(lp310
(lp311
S'c:/marmalade/7.4/s3e/tools'
p312
aS'C:\\Marmalade\\7.4\\s3e\\python\\python.exe .\\process_map.py "$(TargetPath)"'
p313
aa(S'c:\\marmalade\\7.4\\s3e\\bin'
p314
S'"s3e_plink" -l "$(TargetPath)" '
p315
g154
tp316
asS'librarys'
p317
(lp318
g297
(cmkb_main
Library
p319
g299
Ntp320
Rp321
(dp322
S'name'
p323
S'vc6_compat.lib'
p324
sS'expand_name'
p325
I00
sS'include_spec_rvct_objs'
p326
(lp327
sS'include_all_objs'
p328
I00
sS'share_arm'
p329
I00
sS'arch'
p330
S'x86'
p331
sS'nodebug'
p332
I00
sg35
Nsbag297
(g319
g299
Ntp333
Rp334
(dp335
g323
S'iwutil'
p336
sg325
I01
sg326
(lp337
sg328
Nsg329
Nsg330
Nsg332
I00
sg35
Nsbag297
(g319
g299
Ntp338
Rp339
(dp340
g323
S'jpeg'
p341
sg325
I01
sg326
g337
sg328
Nsg329
Nsg330
Nsg332
I00
sg35
Nsbag297
(g319
g299
Ntp342
Rp343
(dp344
g323
S'z'
p345
sg325
I01
sg326
g337
sg328
Nsg329
Nsg330
Nsg332
I00
sg35
Nsbag297
(g319
g299
Ntp346
Rp347
(dp348
g323
S'png'
p349
sg325
I01
sg326
g337
sg328
Nsg329
Nsg330
Nsg332
I00
sg35
Nsbag297
(g319
g299
Ntp350
Rp351
(dp352
g323
S's3e_cpp'
p353
sg325
I01
sg326
g327
sg328
I00
sg329
I00
sg330
Nsg332
I00
sg35
Nsbag297
(g319
g299
Ntp354
Rp355
(dp356
g323
S's3e'
p357
sg325
I01
sg326
(lp358
S'iwcrt.o'
p359
asg328
I00
sg329
I00
sg330
Nsg332
I00
sg35
Nsbag297
(g319
g299
Ntp360
Rp361
(dp362
g323
S's3e_api'
p363
sg325
I01
sg326
g327
sg328
I00
sg329
I00
sg330
S'x86'
p364
sg332
I01
sg35
Nsbag297
(g319
g299
Ntp365
Rp366
(dp367
g323
g363
sg325
I01
sg326
g327
sg328
I00
sg329
I00
sg330
S'!x86'
p368
sg332
I01
sg35
Nsbag297
(g319
g299
Ntp369
Rp370
(dp371
g323
S'stdc++'
p372
sg325
I00
sg326
g327
sg328
I00
sg329
I00
sg330
S'mips'
p373
sg332
I00
sg35
Nsbag297
(g319
g299
Ntp374
Rp375
(dp376
g323
S'c'
p377
sg325
I00
sg326
g327
sg328
I00
sg329
I00
sg330
S'mips'
p378
sg332
I00
sg35
Nsbag297
(g319
g299
Ntp379
Rp380
(dp381
g323
S'm'
p382
sg325
I00
sg326
g327
sg328
I00
sg329
I00
sg330
S'mips'
p383
sg332
I00
sg35
Nsbag297
(g319
g299
Ntp384
Rp385
(dp386
g323
S'gcc'
p387
sg325
I00
sg326
g327
sg328
I00
sg329
I00
sg330
S'mips'
p388
sg332
I00
sg35
Nsbag297
(g319
g299
Ntp389
Rp390
(dp391
g323
S'stdc++'
p392
sg325
I00
sg326
g327
sg328
I00
sg329
I00
sg330
S'gcc_x86_android'
p393
sg332
I00
sg35
Nsbag297
(g319
g299
Ntp394
Rp395
(dp396
g323
g377
sg325
I00
sg326
g327
sg328
I00
sg329
I00
sg330
S'gcc_x86_android'
p397
sg332
I00
sg35
Nsbag297
(g319
g299
Ntp398
Rp399
(dp400
g323
g382
sg325
I00
sg326
g327
sg328
I00
sg329
I00
sg330
S'gcc_x86_android'
p401
sg332
I00
sg35
Nsbag297
(g319
g299
Ntp402
Rp403
(dp404
g323
g387
sg325
I00
sg326
g327
sg328
I00
sg329
I00
sg330
S'gcc_x86_android'
p405
sg332
I00
sg35
NsbasS'library_paths'
p406
(lp407
g297
(cmkb_main
LibraryPath
p408
g299
Ntp409
Rp410
(dp411
S'expand_path'
p412
I01
sg323
S'c:/marmalade/7.4/modules/iwutil'
p413
sbag297
(g408
g299
Ntp414
Rp415
(dp416
g412
I01
sg323
S'c:/marmalade/7.4/modules/third_party/libjpeg'
p417
sbag297
(g408
g299
Ntp418
Rp419
(dp420
g412
I01
sg323
S'c:/marmalade/7.4/modules/third_party/zlib'
p421
sbag297
(g408
g299
Ntp422
Rp423
(dp424
g412
I01
sg323
S'c:/marmalade/7.4/modules/third_party/libpng'
p425
sbag297
(g408
g299
Ntp426
Rp427
(dp428
g412
I01
sg323
S'c:/marmalade/7.4/s3e'
p429
sbasS'macros'
p430
(dp431
S'IW_USE_CALLSTACK'
p432
NsS'IW_PLATFORM_S3E'
p433
NsS'I3D_PLATFORM_S3E'
p434
NsS'IW_MKF_IWUTIL'
p435
NsS'S3E_INCLUDE_LEGACY'
p436
NsS'IW_SDK'
p437
NsS'__S3E__'
p438
NsS'IW_USE_ASSERTIONS'
p439
NsS'_CRT_SECURE_NO_DEPRECATE'
p440
NsS'IW_APP_NAME'
p441
S'"MVSStage4"'
p442
sS'IW_MKF_LIBJPEG'
p443
NsS'I3D_OS_S3E'
p444
NsS'IW_APP_VERSION'
p445
S'"1.0"'
p446
sS'IW_DEBUG'
p447
NsS'IW_USE_TRACING'
p448
NsS'IW_MKF_ZLIB'
p449
NsS'IW_MKF_LIBPNG'
p450
NssS'done_warnings'
p451
(dp452
sS'subprojects'
p453
(dp454
g176
S'zlib'
p455
sg173
S'iwutil'
p456
sg174
S'libjpeg'
p457
sg175
S'libpng'
p458
ssS'deployments'
p459
(dp460
S'Default'
p461
g297
(cdeployment
Deployment
p462
g299
Ntp463
Rp464
(dp465
S'got_version'
p466
I0
sS'assets'
p467
g461
sS'mkb'
p468
g301
sS'target'
p469
Nsg330
(lp470
sS'options'
p471
(dp472
S'iphone-link-lib'
p473
(lp474
sS'game-icf'
p475
NsS'android-tm'
p476
NsS'winmobile-icon32'
p477
NsS'ws8-logo-image150x150'
p478
NsS'wp81-logo-image150x150'
p479
NsS'ws81-product-version'
p480
NsS'osx-ext-dll'
p481
(lp482
sS'iphone-provisioning-profile'
p483
NsS'ws8-splash-screen-image620x300'
p484
NsS'wp81-extra-pri'
p485
(lp486
sS'ws8-ext-capabilities'
p487
(lp488
sS'android-icon-hdpi'
p489
NsS'brew-icon-large'
p490
NsS'iphone-splash-full-orient'
p491
NsS'wp8-tile-fliptemplate-supports-large'
p492
NsS'iphone-show-status-bar'
p493
NsS'roku-requires-mkv'
p494
NsS'long-caption'
p495
NsS'android-pkgname'
p496
NsS'wp81-publisher-display-name'
p497
NsS'blackberry-permissions-read-device-identifying-information'
p498
NsS'ws81-certificate-end-date'
p499
NsS'psp-dlgcontentid'
p500
NsS'iphone-minimum-ios-version'
p501
NsS'target-folder'
p502
NsS'tizen-dist1-CA-path'
p503
NsS'symbian-icon2-format'
p504
NsS'tizen-author-key'
p505
NsS'firefoxos-icon-128X128'
p506
NsS'iphone-region'
p507
NsS'uiq3-icon3-mask'
p508
NsS'brew-encoding'
p509
NsS'android-x86'
p510
NsS'nds-initialcode'
p511
NsS'iphone-persistent-wifi'
p512
NsS'psp-snd0'
p513
NsS'roku-icon-focus-hd'
p514
NsS'winmobile-install-folder'
p515
NsS'android-external-res'
p516
(lp517
sS'ws8-product-version'
p518
NsS'brew-priviledges'
p519
NsS'iphone-icon-ipad-search'
p520
NsS'iphone-icon-ipad'
p521
NsS'roku-hidden'
p522
NsS'psp-titlename'
p523
NsS'wp81-product-version'
p524
NsS'symbian-icon1-mask'
p525
NsS'psp-parentallevel'
p526
NsS'splashscreen-use-all'
p527
NsS'wp8-author'
p528
NsS'symbian-disable-ecompxl'
p529
NsS'splashscreen-auto-onblack'
p530
NsS'win32-ext-dll'
p531
(lp532
sS'iphone-development-key'
p533
NsS'winmobile-icon48'
p534
NsS'android-unsigned'
p535
NsS'osx-appstore-category'
p536
NsS'version-revision'
p537
NsS'roku-icon-focus-sd'
p538
NsS'android-keystore'
p539
NsS'winmobile-png90'
p540
NsS'iphone-icon-ipad-high-res'
p541
NsS'iphone-disable-ipad'
p542
NsS'wp8-product-id'
p543
NsS'ws81-splash-screen-background'
p544
NsS'wp8-ext-capabilities'
p545
(lp546
sS'iphone-ipad-only'
p547
NsS'symbian-icon1-mask-black'
p548
NsS'iphone-nosign'
p549
NsS'iphone-bundle-localisations'
p550
NsS'winmobile-png60'
p551
NsS'blackberry-permissions-access-shared'
p552
NsS'blackberry-author'
p553
NsS'android-icon-xxxhdpi'
p554
NsS'olddeploytoolstyle'
p555
NsS'android_icon_gallery'
p556
NsS'wp81-splash-screen-background'
p557
NsS'winmobile-cab-compress'
p558
NsS'iphone-info-plist'
p559
NsS'ws81-ext-managed-dll'
p560
(lp561
sS'playbook-cskpass'
p562
NsS'ws8-distribution-pfx-password'
p563
NsS'symbian-key'
p564
NsS'app-icf'
p565
NsS'blackberry-storepass'
p566
NsS'wp8-tile-fliptemplate-back-title'
p567
NsS'brew-compress-loader'
p568
NsS'win32-pref-windowposy'
p569
NsS'win32-pref-windowposx'
p570
NsS'roku-requires-audiometadata'
p571
NsS'wp8-exclude-low-mem'
p572
NsS'iphone-icon-ipad-search-high-res'
p573
NsS'iphone-link-libdir'
p574
(lp575
sS'wp81-ext-capabilities'
p576
(lp577
sS'blackberry-permissions-read-geolocation'
p578
NsS'ws81-ext-device-capabilities'
p579
(lp580
sS'tizen-signed'
p581
NsS'android-extra-application-manifest'
p582
(lp583
sS'ws8-ext-native-dll'
p584
(lp585
sS'symbian-icon2-mask'
p586
NsS'iphone-backgroundmode-audio'
p587
NsS'webos-memory'
p588
NsS'android-keypass'
p589
NsS'name'
p590
NsS'uiq3-icon2-format'
p591
NsS'roku-splash-screen-sd'
p592
NsS'auto-derbh'
p593
NsS'roku-icon-side-sd'
p594
NsS'android-external-assets'
p595
(lp596
sS'nds-publicsavedatasize'
p597
NsS'splashscreen'
p598
NsS'brew-mif'
p599
NsS'iphone-icon-settings-high-res'
p600
NsS'android-manifest'
p601
NsS'ws81-splash-screen-image620x300'
p602
NsS'wp81-product-name'
p603
NsS's3e-compression'
p604
NsS'tizen-author-password'
p605
NsS'wp8-tile-fliptemplate-back-content'
p606
NsS'blackberry-extra-descriptor'
p607
(lp608
sS'symbian-icon1'
p609
NsS'symbian-icon2'
p610
NsS'android-extra-styles-file'
p611
NsS'wp81-publisher-id'
p612
NsS'nds-bannertitle-jp'
p613
NsS'wp81-logo-image44x44'
p614
NsS'osx-sign-for-store'
p615
NsS'symbian7-uid'
p616
NsS'wp8-tile-fliptemplate-large-back-content'
p617
NsS'wp81-phone-publisher-id'
p618
NsS'nds-bannertitle-cn'
p619
NsS'iphone-distribution-key'
p620
NsS'android-icon-gallery'
p621
NsS'blackberry-keystore'
p622
NsS'ws8-extra-res'
p623
(lp624
sS'caption'
p625
NsS'android-extra-manifest'
p626
(lp627
sS'wp81-ext-sdk-ref'
p628
(lp629
sS'android-icon-xxhdpi'
p630
NsS'version-minor'
p631
NsS'iphone-link-libdirs'
p632
(lp633
sS'iphone-icon-large'
p634
NsS'symbian-keypwd'
p635
NsS'symbian8-uid'
p636
NsS'symbian-cert-key'
p637
NsS'winmobile-ampd-part-number'
p638
NsS'arch'
p639
NsS'nds-romheadertemplate'
p640
NsS'webos-icon'
p641
NsS'wp81-ext-device-capabilities'
p642
(lp643
sS'psp-dlgprotectdocument'
p644
NsS'ws8-splash-screen-background'
p645
NsS'android-icon-mdpi'
p646
NsS'nds-icon'
p647
NsS'ws8-custom-manifest-fill'
p648
NsS'iphone-development-cert'
p649
NsS'blackberry-phone-icon'
p650
NsS'iphone-enable-4inch-retina'
p651
NsS'ws8-custom-manifest'
p652
NsS'version-major'
p653
NsS'wp8-genre-isgame'
p654
NsS'uiq3-uid'
p655
NsS'iphone-splash-retina-generate'
p656
NsS'tizen-hw-acceleration'
p657
NsS'iphone_bundle_localisations'
p658
NsS'tizen-dist1-key'
p659
NsS'wp81-custom-manifest-fill'
p660
NsS'wp8-custom-manifest'
p661
NsS'nds-bannertitle-ge'
p662
NsS'iphone-sign-for-distribution'
p663
NsS'wp8-tile-fliptemplate-medium-back-image'
p664
NsS'wp8-publisher-id'
p665
NsS'icon'
p666
NsS'wp8-exclude-wxga'
p667
NsS'wp81-identity-name'
p668
NsS'uiq3-icon2-mask'
p669
NsS'iphone-splashscreen-portrait'
p670
NsS'iphone-icon-high-res'
p671
NsS'ws81-distribution-pfx-password'
p672
NsS'playbook-author'
p673
NsS'android-icon-xhdpi'
p674
NsS'linux-ext-lib'
p675
(lp676
sS'blackberry-permissions-access-internet'
p677
NsS'wp8-exclude-720p'
p678
NsS'lgtv-use-drm'
p679
NsS'symbian-platsecflags'
p680
NsS'ws8-description'
p681
NsS'blackberry-playbook-icon'
p682
NsS'copyright'
p683
NsS'win32-gles-directory'
p684
NsS'version'
p685
NsS'ws81-logo-image150x150'
p686
NsS'osx-signing-identity-app'
p687
NsS'tizen-project-url'
p688
NsS'symbian-icon-svg'
p689
NsS'android-aliasname'
p690
NsS'psp-dlgmanual'
p691
NsS'brew-uid'
p692
NsS'symbian-locationsupport'
p693
NsS'wp81-logo-image50x50'
p694
NsS'ws8-ext-managed-dll'
p695
(lp696
sS'nds-bannertitle-it'
p697
NsS'ws81-custom-manifest-fill'
p698
NsS'ws8-ext-sdk-manifest-part'
p699
(lp700
sS'uiq3-icon1-mask'
p701
NsS'winmobile-icon16'
p702
NsS'ws8-product-name'
p703
NsS'blackberry-cskpass'
p704
NsS'winmobile-start-menu-folder'
p705
NsS'brew-clsid'
p706
NsS'roku-requires-bluetooth'
p707
NsS'ws8-ext-device-capabilities'
p708
(lp709
sS'blackberry-permissions-use-camera'
p710
NsS'ws81-extra-pri'
p711
(lp712
sS'iphone-prerendered-icon'
p713
NsS'iphone-appid'
p714
NsS'ws8-identity-name'
p715
NsS'tizen-dist2-CA-path'
p716
NsS'android-external-jars'
p717
(lp718
sS'winmobile-icon64'
p719
NsS'blackberry-permissions-post-notification'
p720
NsS'winmobile-setup-dll'
p721
NsS'firefoxos-manifest'
p722
NsS'win8-winrt-extra-res'
p723
(lp724
sS'wp81-ext-sdk-manifest-part'
p725
(lp726
sS'symbian9-uid'
p727
NsS'iphone-icon-ipad-ios7'
p728
NsS'winmobile-trace-file'
p729
NsS'roku-splash-color'
p730
NsS'psp-appversion'
p731
NsS'ws8-publisher-id'
p732
NsS'android-supports-gl-texture'
p733
(lp734
sS'winmobile-png45'
p735
NsS'wp81-extra-res'
p736
(lp737
sS'android-storepass'
p738
NsS'osx-signing-identity-inst'
p739
NsS'android-custom-activity'
p740
NsS'psp-discversion'
p741
NsS'wp81-ext-managed-dll'
p742
(lp743
sS'psp-copyright'
p744
NsS'embed-icf'
p745
NsS'tizen-manifest'
p746
NsS'osx-icon'
p747
NsS'webos-appinfo'
p748
NsS'psp-dlghealthwarning'
p749
NsS'webos-appid'
p750
NsS'roku-icon-side-hd'
p751
NsS'iphone-icon-ipad-search-high-res-ios7'
p752
NsS'ws81-ext-sdk-manifest-part'
p753
(lp754
sS'loader_name_prefix'
p755
NsS'nds-titlename'
p756
NsS'ws81-logo-image50x50'
p757
NsS'wp81-custom-manifest'
p758
NsS'osx-entitlements-plist'
p759
NsS'psp-dlgicon0'
p760
NsS'winmobile-nouninstall'
p761
NsS'psp-discid'
p762
NsS'tizen-dist2-password'
p763
NsS'ws8-ext-sdk-ref'
p764
(lp765
sS'iphone-extra-string'
p766
(lp767
sS'version-string'
p768
NsS'iphone-icon-high-res-ios7'
p769
NsS'blackberry-permissions-record-audio'
p770
NsS'ws8-certificate-end-date'
p771
NsS'tizen-so'
p772
(lp773
sS'wp8-tile-fliptemplate-small-image'
p774
NsS'playbook-authorid'
p775
NsS'iphone-signing-identity'
p776
NsS'roku-persist-quota'
p777
NsS'nds-bannertitle-fr'
p778
NsS'ws8-distribution-pfx'
p779
NsS'ws8-publisher-display-name'
p780
NsS'brew-icon-small'
p781
NsS'psp-dlgpic2'
p782
NsS'psp-dlgpic0'
p783
NsS'psp-pic0'
p784
NsS'psp-pic1'
p785
NsS'win32-pref-windowtitle'
p786
NsS'psp-icon0'
p787
NsS'psp-icon1'
p788
NsS'ws81-identity-name'
p789
NsS'winmobile-icon'
p790
NsS'iphone-no-splash'
p791
NsS'iphone-splash'
p792
NsS'iphone-app-fonts'
p793
NsS'wp8-ext-native-dll'
p794
(lp795
sS'wp81-splash-screen-image480x800'
p796
NsS'ws81-distribution-cer'
p797
NsS'uiq3-icon2'
p798
NsS'uiq3-icon3'
p799
NsS'uiq3-icon1'
p800
NsS'uiq3-icon1-format'
p801
NsS'ws8-logo-image50x50'
p802
NsS'symbian-icon2-mask-black'
p803
NsS'symbian-run-on-install'
p804
NsS'wp81-description'
p805
NsS'ws81-publisher-display-name'
p806
NsS'firefoxos-xulrunner'
p807
NsS'symbian-soundrecordsupport'
p808
NsS'nds-bannertitle-sp'
p809
NsS'psp-producer'
p810
NsS'iphone-apple-wwdr-cert'
p811
NsS'android-icon-nonstandard'
p812
NsS'win32-pref-processtitle'
p813
NsS'nds-bannertitle-hn'
p814
NsS'tizen-dist2-key'
p815
NsS'brew-depends'
p816
NsS'ws81-custom-manifest'
p817
NsS'iphone-icon-ipad-search-ios7'
p818
NsS'brew-icon-medium'
p819
NsS'iphone-bundle-url-name'
p820
NsS'wp8-tile-fliptemplate-large-front-image'
p821
NsS'tizen-dist2-CA-root-path'
p822
NsS'ws81-description'
p823
NsS'uiq3-icon3-format'
p824
NsS'ws81-logo-image30x30'
p825
NsS'win8-phone-extra-res'
p826
(lp827
sS'iphone-signing-host'
p828
NsS'tizen-icon'
p829
NsS'osx-info-plist'
p830
NsS'symbian-icon1-format'
p831
NsS'win8-store-extra-res'
p832
(lp833
sS'blackberry-authorid'
p834
NsS'ws81-publisher-id'
p835
NsS'ws81-distribution-pfx'
p836
NsS'wp8-description'
p837
NsS'iphone-link-opts'
p838
(lp839
sS'ws81-ext-sdk-ref'
p840
(lp841
sS'roku-splash-min-time'
p842
NsS'wp8-tile-fliptemplate-medium-front-image'
p843
NsS'provider'
p844
NsS'playbook-keystore'
p845
NsS'tizen-appid'
p846
NsS'wp8-extra-res'
p847
(lp848
sS'symbian-osexecsupport'
p849
NsS'android-install-location'
p850
NsS'nds-privatesavedatasize'
p851
NsS'playbook-storepass'
p852
NsS'android-icon-ldpi'
p853
NsS'manufacturer'
p854
NsS'itunes-artwork'
p855
NsS'iphone-extra-sections'
p856
NsS'ws81-product-name'
p857
NsS'ws81-ext-native-dll'
p858
(lp859
sS'ws8-extra-pri'
p860
(lp861
sS'win32-icon'
p862
NsS'ws8-logo-image30x30'
p863
NsS'wp8-ext-managed-dll'
p864
(lp865
sS'iphone-splashscreen-landscape'
p866
NsS'symbian-maxheapsize'
p867
NsS'nds-makercode'
p868
NsS'priv-sign-key'
p869
NsS'networking'
p870
NsS'android-icon'
p871
NsS'iphone-icon-settings'
p872
NsS'wp81-phone-product-id'
p873
NsS'firefoxos-icon-60X60'
p874
NsS'iphone-distribution-cert'
p875
NsS'android_extra_strings'
p876
NsS'nds-bannertitle-en'
p877
NsS'wp8-tile-fliptemplate-title'
p878
NsS'android-so'
p879
(lp880
sS'wp8-higher-mem'
p881
NsS'wp8-ext-sdk-ref'
p882
(lp883
sS'roku-splash-screen-hd'
p884
NsS'iphone-bundle-url-schemes'
p885
NsS'roku-screensaver-private'
p886
NsS'osx-extra-res'
p887
(lp888
sS'ws81-extra-res'
p889
(lp890
sS'playbook-icon'
p891
NsS'uid'
p892
NsS'pkguid-as-uid'
p893
NsS'wp81-ext-native-dll'
p894
(lp895
sS'tizen-dist1-password'
p896
NsS'roku-screensaver-title'
p897
NsS'osx-minimum-osx-version'
p898
NsS'symbian-cert'
p899
NsS'iphone-icon'
p900
NsS'ws81-ext-capabilities'
p901
(lp902
sS'ws8-distribution-cer'
p903
NsS'playbook-access-shared'
p904
NsS'iphone-icon-ipad-high-res-ios7'
p905
NsS'iphone-link-libs'
p906
(lp907
sS'wp8-exclude-wvga'
p908
NsS'assets'
p909
NsS'wp8-tile-fliptemplate-large-back-image'
p910
NsS'wp8-custom-manifest-fill'
p911
NsS'pub-sign-key'
p912
NsS'android-extra-strings'
p913
NsS'tizen-author-CA-path'
p914
Nssg323
g461
sbssS'platform'
p915
S'S3E'
p916
sg64
S'1.0'
p917
sS'arcade_platform'
p918
g4
sS'extensions'
p919
(dp920
sS'source_groups_tree'
p921
(dp922
S"'Marmalade Studio'"
p923
(dp924
S'iwutil'
p925
(dp926
S'c:/marmalade/7.4/modules/iwutil/h/IwTextParser.h'
p927
(lp928
I1
a(dp929
asS'c:/marmalade/7.4/modules/iwutil/h/IwMenu.h'
p930
(lp931
I1
ag929
asS'c:/marmalade/7.4/modules/iwutil/h/IwUtilInitTerm.h'
p932
(lp933
I1
ag929
asS'c:/marmalade/7.4/modules/iwutil/h/IwCopyingPtr.h'
p934
(lp935
I1
ag929
asS'c:/marmalade/7.4/modules/iwutil/h/IwDebug.h'
p936
(lp937
I1
ag929
asS'c:/marmalade/7.4/modules/iwutil/h/IwVariableBitField.h'
p938
(lp939
I1
ag929
asS'c:/marmalade/7.4/modules/iwutil/h/IwBuffer.h'
p940
(lp941
I1
ag929
asS'c:/marmalade/7.4/modules/iwutil/h/IwKeymap.h'
p942
(lp943
I1
ag929
asS'c:/marmalade/7.4/modules/iwutil/h/IwResource.h'
p944
(lp945
I1
ag929
asS'c:/marmalade/7.4/modules/iwutil/h/IwCore.h'
p946
(lp947
I1
ag929
asS'c:/marmalade/7.4/modules/iwutil/h/IwTextParserITX.h'
p948
(lp949
I1
ag929
asS'c:/marmalade/7.4/modules/iwutil/h/IwRandom.h'
p950
(lp951
I1
ag929
asS'c:/marmalade/7.4/modules/iwutil/h/IwHashString.h'
p952
(lp953
I1
ag929
asS'c:/marmalade/7.4/modules/iwutil/h/IwProfileMenu.h'
p954
(lp955
I1
ag929
asS'c:/marmalade/7.4/modules/iwutil/h/IwManagedList.h'
p956
(lp957
I1
ag929
asS'c:/marmalade/7.4/modules/iwutil/h/IwList.h'
p958
(lp959
I1
ag929
asS'c:/marmalade/7.4/modules/iwutil/h/IwSerialise.h'
p960
(lp961
I1
ag929
asS'c:/marmalade/7.4/modules/iwutil/h/IwClassFactory.h'
p962
(lp963
I1
ag929
asS'c:/marmalade/7.4/modules/iwutil/h/IwTypes.h'
p964
(lp965
I1
ag929
asS'c:/marmalade/7.4/modules/iwutil/h/IwAllocator.h'
p966
(lp967
I1
ag929
asS'c:/marmalade/7.4/modules/iwutil/docs/iwutil.config.txt'
p968
(lp969
I1
ag929
asS'c:/marmalade/7.4/modules/iwutil/h/IwTextParseable.h'
p970
(lp971
I1
ag929
asS'c:/marmalade/7.4/modules/iwutil/h/IwFile.h'
p972
(lp973
I1
ag929
asS'c:/marmalade/7.4/modules/iwutil/h/IwRuntime.h'
p974
(lp975
I1
ag929
asS'c:/marmalade/7.4/modules/iwutil/h/IwMemBucketHelpers.h'
p976
(lp977
I1
ag929
asS'c:/marmalade/7.4/modules/iwutil/h/IwUncopyable.h'
p978
(lp979
I1
ag929
asS'c:/marmalade/7.4/modules/iwutil/h/IwOptimiseSpeed.h'
p980
(lp981
I1
ag929
asS'c:/marmalade/7.4/modules/iwutil/h/IwOptimiseARM.h'
p982
(lp983
I1
ag929
asS'c:/marmalade/7.4/modules/iwutil/h/IwImage.h'
p984
(lp985
I1
ag929
asS'c:/marmalade/7.4/modules/iwutil/h/IwImageHelper.h'
p986
(lp987
I1
ag929
asS'c:/marmalade/7.4/modules/iwutil/h/IwMemBucket.h'
p988
(lp989
I1
ag929
asS'c:/marmalade/7.4/modules/iwutil/h/IwDivide.h'
p990
(lp991
I1
ag929
asS'c:/marmalade/7.4/modules/iwutil/h/IwChar.h'
p992
(lp993
I1
ag929
asS'c:/marmalade/7.4/modules/iwutil/h/IwArray.h'
p994
(lp995
I1
ag929
asS'c:/marmalade/7.4/modules/iwutil/h/IwMemory.h'
p996
(lp997
I1
ag929
asS'c:/marmalade/7.4/modules/iwutil/h/IwManaged.h'
p998
(lp999
I1
ag929
asS'c:/marmalade/7.4/modules/iwutil/h/IwUTF8.h'
p1000
(lp1001
I1
ag929
asS'c:/marmalade/7.4/modules/iwutil/h/IwEvent.h'
p1002
(lp1003
I1
ag929
asS'c:/marmalade/7.4/modules/iwutil/h/IwMath.h'
p1004
(lp1005
I1
ag929
asS'c:/marmalade/7.4/modules/iwutil/h/IwAutoFile.h'
p1006
(lp1007
I1
ag929
asS'c:/marmalade/7.4/modules/iwutil/h/IwString.h'
p1008
(lp1009
I1
ag929
asS'c:/marmalade/7.4/modules/iwutil/iwutil.mkf'
p1010
(lp1011
I1
a(dp1012
asS'c:/marmalade/7.4/modules/iwutil/h/IwSingleton.h'
p1013
(lp1014
I1
ag929
asS'c:/marmalade/7.4/modules/iwutil/h/IwFibre.h'
p1015
(lp1016
I1
ag929
asS'c:/marmalade/7.4/modules/iwutil/h/IwOptimiseThumb.h'
p1017
(lp1018
I1
ag929
asS'c:/marmalade/7.4/modules/iwutil/h/IwUtil.h'
p1019
(lp1020
I1
ag929
asS'c:/marmalade/7.4/modules/iwutil/h/IwPath.h'
p1021
(lp1022
I1
ag929
asS'c:/marmalade/7.4/modules/iwutil/h/IwMemManagerDL.h'
p1023
(lp1024
I1
ag929
asS'c:/marmalade/7.4/modules/iwutil/h/IwDivTable.h'
p1025
(lp1026
I1
ag929
asS'c:/marmalade/7.4/modules/iwutil/h/IwOptimiseSize.h'
p1027
(lp1028
I1
ag929
asssS'source'
p1029
(dp1030
S'e:/Documents/Michiel/Programmeren/Marmalade/MVSStage4/source/MVSStage4_main.cpp'
p1031
(lp1032
I1
a(dp1033
assS'(zlib)'
p1034
(dp1035
S'h'
p1036
(dp1037
S'c:/marmalade/7.4/modules/third_party/zlib/h/zconf.h'
p1038
(lp1039
I1
a(dp1040
asS'c:/marmalade/7.4/modules/third_party/zlib/h/zlib.h'
p1041
(lp1042
I1
ag1040
assS'c:/marmalade/7.4/modules/third_party/zlib/zlib.mkf'
p1043
(lp1044
I1
a(dp1045
assS'(libpng)'
p1046
(dp1047
g1036
(dp1048
S'c:/marmalade/7.4/modules/third_party/libpng/h/png.h'
p1049
(lp1050
I1
a(dp1051
asS'c:/marmalade/7.4/modules/third_party/libpng/h/pngconf.h'
p1052
(lp1053
I1
ag1051
assS'c:/marmalade/7.4/modules/third_party/libpng/libpng.mkf'
p1054
(lp1055
I1
a(dp1056
assS'(libjpeg)'
p1057
(dp1058
g1036
(dp1059
S'c:/marmalade/7.4/modules/third_party/libjpeg/h/jerror.h'
p1060
(lp1061
I1
a(dp1062
asS'c:/marmalade/7.4/modules/third_party/libjpeg/h/jmemsys.h'
p1063
(lp1064
I1
ag1062
asS'c:/marmalade/7.4/modules/third_party/libjpeg/h/jpegint.h'
p1065
(lp1066
I1
ag1062
asS'c:/marmalade/7.4/modules/third_party/libjpeg/h/jpeglib.h'
p1067
(lp1068
I1
ag1062
asS'c:/marmalade/7.4/modules/third_party/libjpeg/h/cdjpeg.h'
p1069
(lp1070
I1
ag1062
asS'c:/marmalade/7.4/modules/third_party/libjpeg/h/jchuff.h'
p1071
(lp1072
I1
ag1062
asS'c:/marmalade/7.4/modules/third_party/libjpeg/h/jconfig.h'
p1073
(lp1074
I1
ag1062
asS'c:/marmalade/7.4/modules/third_party/libjpeg/h/jinclude.h'
p1075
(lp1076
I1
ag1062
asS'c:/marmalade/7.4/modules/third_party/libjpeg/h/cderror.h'
p1077
(lp1078
I1
ag1062
asS'c:/marmalade/7.4/modules/third_party/libjpeg/h/jdct.h'
p1079
(lp1080
I1
ag1062
asS'c:/marmalade/7.4/modules/third_party/libjpeg/h/jversion.h'
p1081
(lp1082
I1
ag1062
asS'c:/marmalade/7.4/modules/third_party/libjpeg/h/transupp.h'
p1083
(lp1084
I1
ag1062
asS'c:/marmalade/7.4/modules/third_party/libjpeg/h/jdhuff.h'
p1085
(lp1086
I1
ag1062
asS'c:/marmalade/7.4/modules/third_party/libjpeg/h/jmorecfg.h'
p1087
(lp1088
I1
ag1062
assS'c:/marmalade/7.4/modules/third_party/libjpeg/libjpeg.mkf'
p1089
(lp1090
I1
a(dp1091
asssS'files'
p1092
(dp1093
S'hash_map'
p1094
g297
(cmkb_main
File
p1095
g299
Ntp1096
Rp1097
(dp1098
S'flags'
p1099
(dp1100
sS'group'
p1101
(lp1102
S"'Marmalade System (S3E)'"
p1103
aS'stdc headers'
p1104
aS'c++'
p1105
asg323
S'c:/marmalade/7.4/s3e/h/std/c++/hash_map'
p1106
sbsS'IwArray.h'
p1107
g297
(g1095
g299
Ntp1108
Rp1109
(dp1110
g1099
g929
sg1101
(lp1111
g923
ag925
asg323
g994
sbsS'iterator'
p1112
g297
(g1095
g299
Ntp1113
Rp1114
(dp1115
g1099
g1100
sg1101
g1102
sg323
S'c:/marmalade/7.4/s3e/h/std/c++/iterator'
p1116
sbsS'IwUTF8.h'
p1117
g297
(g1095
g299
Ntp1118
Rp1119
(dp1120
g1099
g929
sg1101
g1111
sg323
g1000
sbsS'math_rvct.h'
p1121
g297
(g1095
g299
Ntp1122
Rp1123
(dp1124
g1099
g1100
sg1101
(lp1125
g1103
aS'stdc headers'
p1126
asg323
S'c:/marmalade/7.4/s3e/h/std/math_rvct.h'
p1127
sbsS'pthread_alloc'
p1128
g297
(g1095
g299
Ntp1129
Rp1130
(dp1131
g1099
g1100
sg1101
g1102
sg323
S'c:/marmalade/7.4/s3e/h/std/c++/pthread_alloc'
p1132
sbsS'ctype.h'
p1133
g297
(g1095
g299
Ntp1134
Rp1135
(dp1136
g1099
g1100
sg1101
g1125
sg323
S'c:/marmalade/7.4/s3e/h/std/ctype.h'
p1137
sbsS'ctime'
p1138
g297
(g1095
g299
Ntp1139
Rp1140
(dp1141
g1099
g1100
sg1101
g1102
sg323
S'c:/marmalade/7.4/s3e/h/std/c++/ctime'
p1142
sbsS's3e.h'
p1143
g297
(g1095
g299
Ntp1144
Rp1145
(dp1146
g1099
g1100
sg1101
(lp1147
g1103
asg323
S'c:/marmalade/7.4/s3e/h/s3e.h'
p1148
sbsS'errno.h'
p1149
g297
(g1095
g299
Ntp1150
Rp1151
(dp1152
g1099
g1100
sg1101
g1125
sg323
S'c:/marmalade/7.4/s3e/h/std/errno.h'
p1153
sbsS'IwUtil.h'
p1154
g297
(g1095
g299
Ntp1155
Rp1156
(dp1157
g1099
g929
sg1101
g1111
sg323
g1019
sbsS'IwSingleton.h'
p1158
g297
(g1095
g299
Ntp1159
Rp1160
(dp1161
g1099
g929
sg1101
g1111
sg323
g1013
sbsS'dirent.h'
p1162
g297
(g1095
g299
Ntp1163
Rp1164
(dp1165
g1099
g1100
sg1101
g1125
sg323
S'c:/marmalade/7.4/s3e/h/std/dirent.h'
p1166
sbsS'IwCore.h'
p1167
g297
(g1095
g299
Ntp1168
Rp1169
(dp1170
g1099
g929
sg1101
g1111
sg323
g946
sbsS'dlfcn.h'
p1171
g297
(g1095
g299
Ntp1172
Rp1173
(dp1174
g1099
g1100
sg1101
g1125
sg323
S'c:/marmalade/7.4/s3e/h/std/dlfcn.h'
p1175
sbsS'fstream.h'
p1176
g297
(g1095
g299
Ntp1177
Rp1178
(dp1179
g1099
g1100
sg1101
g1102
sg323
S'c:/marmalade/7.4/s3e/h/std/c++/fstream.h'
p1180
sbsS'cfloat'
p1181
g297
(g1095
g299
Ntp1182
Rp1183
(dp1184
g1099
g1100
sg1101
g1102
sg323
S'c:/marmalade/7.4/s3e/h/std/c++/cfloat'
p1185
sbsS'IwAllocator.h'
p1186
g297
(g1095
g299
Ntp1187
Rp1188
(dp1189
g1099
g929
sg1101
g1111
sg323
g966
sbsS'stdio_streambuf'
p1190
g297
(g1095
g299
Ntp1191
Rp1192
(dp1193
g1099
g1100
sg1101
g1102
sg323
S'c:/marmalade/7.4/s3e/h/std/c++/stdio_streambuf'
p1194
sbsS's3eGL.h'
p1195
g297
(g1095
g299
Ntp1196
Rp1197
(dp1198
g1099
g1100
sg1101
g1147
sg323
S'c:/marmalade/7.4/s3e/h/s3eGL.h'
p1199
sbsS'wctype.h'
p1200
g297
(g1095
g299
Ntp1201
Rp1202
(dp1203
g1099
g1100
sg1101
g1125
sg323
S'c:/marmalade/7.4/s3e/h/std/wctype.h'
p1204
sbsS'IwPath.h'
p1205
g297
(g1095
g299
Ntp1206
Rp1207
(dp1208
g1099
g929
sg1101
g1111
sg323
g1021
sbsS'sched.h'
p1209
g297
(g1095
g299
Ntp1210
Rp1211
(dp1212
g1099
g1100
sg1101
g1125
sg323
S'c:/marmalade/7.4/s3e/h/std/sched.h'
p1213
sbsS'valarray'
p1214
g297
(g1095
g299
Ntp1215
Rp1216
(dp1217
g1099
g1100
sg1101
g1102
sg323
S'c:/marmalade/7.4/s3e/h/std/c++/valarray'
p1218
sbsS'cassert'
p1219
g297
(g1095
g299
Ntp1220
Rp1221
(dp1222
g1099
g1100
sg1101
g1102
sg323
S'c:/marmalade/7.4/s3e/h/std/c++/cassert'
p1223
sbsS'grp.h'
p1224
g297
(g1095
g299
Ntp1225
Rp1226
(dp1227
g1099
g1100
sg1101
g1125
sg323
S'c:/marmalade/7.4/s3e/h/std/grp.h'
p1228
sbsS'list'
p1229
g297
(g1095
g299
Ntp1230
Rp1231
(dp1232
g1099
g1100
sg1101
g1102
sg323
S'c:/marmalade/7.4/s3e/h/std/c++/list'
p1233
sbsS'istream'
p1234
g297
(g1095
g299
Ntp1235
Rp1236
(dp1237
g1099
g1100
sg1101
g1102
sg323
S'c:/marmalade/7.4/s3e/h/std/c++/istream'
p1238
sbsS'poll.h'
p1239
g297
(g1095
g299
Ntp1240
Rp1241
(dp1242
g1099
g1100
sg1101
g1125
sg323
S'c:/marmalade/7.4/s3e/h/std/poll.h'
p1243
sbsS'jpeglib.h'
p1244
g297
(g1095
g299
Ntp1245
Rp1246
(dp1247
g1099
g1062
sg1101
(lp1248
g1057
ag1036
asg323
g1067
sbsS's3eAccelerometer.h'
p1249
g297
(g1095
g299
Ntp1250
Rp1251
(dp1252
g1099
g1100
sg1101
g1147
sg323
S'c:/marmalade/7.4/s3e/h/s3eAccelerometer.h'
p1253
sbsS'iostream.h'
p1254
g297
(g1095
g299
Ntp1255
Rp1256
(dp1257
g1099
g1100
sg1101
g1102
sg323
S'c:/marmalade/7.4/s3e/h/std/c++/iostream.h'
p1258
sbsS's3eOSReadString.h'
p1259
g297
(g1095
g299
Ntp1260
Rp1261
(dp1262
g1099
g1100
sg1101
(lp1263
g1103
aS'Extensions'
p1264
asg323
S'c:/marmalade/7.4/s3e/h/ext/s3eOSReadString.h'
p1265
sbsS'cstddef'
p1266
g297
(g1095
g299
Ntp1267
Rp1268
(dp1269
g1099
g1100
sg1101
g1102
sg323
S'c:/marmalade/7.4/s3e/h/std/c++/cstddef'
p1270
sbsS'iosfwd'
p1271
g297
(g1095
g299
Ntp1272
Rp1273
(dp1274
g1099
g1100
sg1101
g1102
sg323
S'c:/marmalade/7.4/s3e/h/std/c++/iosfwd'
p1275
sbsS'string'
p1276
g297
(g1095
g299
Ntp1277
Rp1278
(dp1279
g1099
g1100
sg1101
g1102
sg323
S'c:/marmalade/7.4/s3e/h/std/c++/string'
p1280
sbsS'IwMemory.h'
p1281
g297
(g1095
g299
Ntp1282
Rp1283
(dp1284
g1099
g929
sg1101
g1111
sg323
g996
sbsS'mman.h'
p1285
g297
(g1095
g299
Ntp1286
Rp1287
(dp1288
g1099
g1100
sg1101
(lp1289
g1103
aS'stdc headers'
p1290
aS'sys'
p1291
asg323
S'c:/marmalade/7.4/s3e/h/std/sys/mman.h'
p1292
sbsS'IwRandom.h'
p1293
g297
(g1095
g299
Ntp1294
Rp1295
(dp1296
g1099
g929
sg1101
g1111
sg323
g950
sbsS'libgen.h'
p1297
g297
(g1095
g299
Ntp1298
Rp1299
(dp1300
g1099
g1100
sg1101
g1125
sg323
S'c:/marmalade/7.4/s3e/h/std/libgen.h'
p1301
sbsS'utsname.h'
p1302
g297
(g1095
g299
Ntp1303
Rp1304
(dp1305
g1099
g1100
sg1101
g1289
sg323
S'c:/marmalade/7.4/s3e/h/std/sys/utsname.h'
p1306
sbsS'fstream'
p1307
g297
(g1095
g299
Ntp1308
Rp1309
(dp1310
g1099
g1100
sg1101
g1102
sg323
S'c:/marmalade/7.4/s3e/h/std/c++/fstream'
p1311
sbsS'wait.h'
p1312
g297
(g1095
g299
Ntp1313
Rp1314
(dp1315
g1099
g1100
sg1101
g1289
sg323
S'c:/marmalade/7.4/s3e/h/std/sys/wait.h'
p1316
sbsS'IwFile.h'
p1317
g297
(g1095
g299
Ntp1318
Rp1319
(dp1320
g1099
g929
sg1101
g1111
sg323
g972
sbsS'IwTextParseable.h'
p1321
g297
(g1095
g299
Ntp1322
Rp1323
(dp1324
g1099
g929
sg1101
g1111
sg323
g970
sbsS'istream.h'
p1325
g297
(g1095
g299
Ntp1326
Rp1327
(dp1328
g1099
g1100
sg1101
g1102
sg323
S'c:/marmalade/7.4/s3e/h/std/c++/istream.h'
p1329
sbsS'type_traits.h'
p1330
g297
(g1095
g299
Ntp1331
Rp1332
(dp1333
g1099
g1100
sg1101
g1102
sg323
S'c:/marmalade/7.4/s3e/h/std/c++/type_traits.h'
p1334
sbsS'algorithm'
p1335
g297
(g1095
g299
Ntp1336
Rp1337
(dp1338
g1099
g1100
sg1101
g1102
sg323
S'c:/marmalade/7.4/s3e/h/std/c++/algorithm'
p1339
sbsS'cwchar'
p1340
g297
(g1095
g299
Ntp1341
Rp1342
(dp1343
g1099
g1100
sg1101
g1102
sg323
S'c:/marmalade/7.4/s3e/h/std/c++/cwchar'
p1344
sbsS'stdint.h'
p1345
g297
(g1095
g299
Ntp1346
Rp1347
(dp1348
g1099
g1100
sg1101
g1125
sg323
S'c:/marmalade/7.4/s3e/h/std/stdint.h'
p1349
sbsS'semaphore.h'
p1350
g297
(g1095
g299
Ntp1351
Rp1352
(dp1353
g1099
g1100
sg1101
g1125
sg323
S'c:/marmalade/7.4/s3e/h/std/semaphore.h'
p1354
sbsS'iomanip'
p1355
g297
(g1095
g299
Ntp1356
Rp1357
(dp1358
g1099
g1100
sg1101
g1102
sg323
S'c:/marmalade/7.4/s3e/h/std/c++/iomanip'
p1359
sbsS'gl2.h'
p1360
g297
(g1095
g299
Ntp1361
Rp1362
(dp1363
g1099
g1100
sg1101
(lp1364
g1103
aS'GL'
p1365
aS'GLES 2.0'
p1366
asg323
S'c:/marmalade/7.4/s3e/h/GLES2/gl2.h'
p1367
sbsS'assert.h'
p1368
g297
(g1095
g299
Ntp1369
Rp1370
(dp1371
g1099
g1100
sg1101
g1125
sg323
S'c:/marmalade/7.4/s3e/h/std/assert.h'
p1372
sbsS'param.h'
p1373
g297
(g1095
g299
Ntp1374
Rp1375
(dp1376
g1099
g1100
sg1101
g1289
sg323
S'c:/marmalade/7.4/s3e/h/std/sys/param.h'
p1377
sbsS'dir.h'
p1378
g297
(g1095
g299
Ntp1379
Rp1380
(dp1381
g1099
g1100
sg1101
g1289
sg323
S'c:/marmalade/7.4/s3e/h/std/sys/dir.h'
p1382
sbsS'IwDivide.h'
p1383
g297
(g1095
g299
Ntp1384
Rp1385
(dp1386
g1099
g929
sg1101
g1111
sg323
g990
sbsS'locale.h'
p1387
g297
(g1095
g299
Ntp1388
Rp1389
(dp1390
g1099
g1100
sg1101
g1125
sg323
S'c:/marmalade/7.4/s3e/h/std/locale.h'
p1391
sbsS'IwManagedList.h'
p1392
g297
(g1095
g299
Ntp1393
Rp1394
(dp1395
g1099
g929
sg1101
g1111
sg323
g956
sbsS'vector'
p1396
g297
(g1095
g299
Ntp1397
Rp1398
(dp1399
g1099
g1100
sg1101
g1102
sg323
S'c:/marmalade/7.4/s3e/h/std/c++/vector'
p1400
sbsS'ostream'
p1401
g297
(g1095
g299
Ntp1402
Rp1403
(dp1404
g1099
g1100
sg1101
g1102
sg323
S'c:/marmalade/7.4/s3e/h/std/c++/ostream'
p1405
sbsS'termios.h'
p1406
g297
(g1095
g299
Ntp1407
Rp1408
(dp1409
g1099
g1100
sg1101
g1125
sg323
S'c:/marmalade/7.4/s3e/h/std/termios.h'
p1410
sbsS'cwctype'
p1411
g297
(g1095
g299
Ntp1412
Rp1413
(dp1414
g1099
g1100
sg1101
g1102
sg323
S'c:/marmalade/7.4/s3e/h/std/c++/cwctype'
p1415
sbsS's3ePointer.h'
p1416
g297
(g1095
g299
Ntp1417
Rp1418
(dp1419
g1099
g1100
sg1101
g1147
sg323
S'c:/marmalade/7.4/s3e/h/s3ePointer.h'
p1420
sbsS'IwManaged.h'
p1421
g297
(g1095
g299
Ntp1422
Rp1423
(dp1424
g1099
g929
sg1101
g1111
sg323
g998
sbsS'stdiostream.h'
p1425
g297
(g1095
g299
Ntp1426
Rp1427
(dp1428
g1099
g1100
sg1101
g1102
sg323
S'c:/marmalade/7.4/s3e/h/std/c++/stdiostream.h'
p1429
sbsS'sstream'
p1430
g297
(g1095
g299
Ntp1431
Rp1432
(dp1433
g1099
g1100
sg1101
g1102
sg323
S'c:/marmalade/7.4/s3e/h/std/c++/sstream'
p1434
sbsS'alloca.h'
p1435
g297
(g1095
g299
Ntp1436
Rp1437
(dp1438
g1099
g1100
sg1101
g1125
sg323
S'c:/marmalade/7.4/s3e/h/std/alloca.h'
p1439
sbsS'jerror.h'
p1440
g297
(g1095
g299
Ntp1441
Rp1442
(dp1443
g1099
g1062
sg1101
g1248
sg323
g1060
sbsS's3eCompass.h'
p1444
g297
(g1095
g299
Ntp1445
Rp1446
(dp1447
g1099
g1100
sg1101
g1147
sg323
S'c:/marmalade/7.4/s3e/h/s3eCompass.h'
p1448
sbsS'prctl.h'
p1449
g297
(g1095
g299
Ntp1450
Rp1451
(dp1452
g1099
g1100
sg1101
g1289
sg323
S'c:/marmalade/7.4/s3e/h/std/sys/prctl.h'
p1453
sbsS'netdb.h'
p1454
g297
(g1095
g299
Ntp1455
Rp1456
(dp1457
g1099
g1100
sg1101
g1125
sg323
S'c:/marmalade/7.4/s3e/h/std/netdb.h'
p1458
sbsS's3eOSExec.h'
p1459
g297
(g1095
g299
Ntp1460
Rp1461
(dp1462
g1099
g1100
sg1101
g1263
sg323
S'c:/marmalade/7.4/s3e/h/ext/s3eOSExec.h'
p1463
sbsS'locale'
p1464
g297
(g1095
g299
Ntp1465
Rp1466
(dp1467
g1099
g1100
sg1101
g1102
sg323
S'c:/marmalade/7.4/s3e/h/std/c++/locale'
p1468
sbsS'zconf.h'
p1469
g297
(g1095
g299
Ntp1470
Rp1471
(dp1472
g1099
g1040
sg1101
(lp1473
g1034
ag1036
asg323
g1038
sbsS'cderror.h'
p1474
g297
(g1095
g299
Ntp1475
Rp1476
(dp1477
g1099
g1062
sg1101
g1248
sg323
g1077
sbsS'climits'
p1478
g297
(g1095
g299
Ntp1479
Rp1480
(dp1481
g1099
g1100
sg1101
g1102
sg323
S'c:/marmalade/7.4/s3e/h/std/c++/climits'
p1482
sbsS's3e.config.txt'
p1483
g297
(g1095
g299
Ntp1484
Rp1485
(dp1486
g1099
g1100
sg1101
g1147
sg323
S'c:/marmalade/7.4/s3e/s3e.config.txt'
p1487
sbsS'numeric'
p1488
g297
(g1095
g299
Ntp1489
Rp1490
(dp1491
g1099
g1100
sg1101
g1102
sg323
S'c:/marmalade/7.4/s3e/h/std/c++/numeric'
p1492
sbsS'utime.h'
p1493
g297
(g1095
g299
Ntp1494
Rp1495
(dp1496
g1099
g1100
sg1101
g1125
sg323
S'c:/marmalade/7.4/s3e/h/std/utime.h'
p1497
sbsS'cdjpeg.h'
p1498
g297
(g1095
g299
Ntp1499
Rp1500
(dp1501
g1099
g1062
sg1101
g1248
sg323
g1069
sbsS'cstdio'
p1502
g297
(g1095
g299
Ntp1503
Rp1504
(dp1505
g1099
g1100
sg1101
g1102
sg323
S'c:/marmalade/7.4/s3e/h/std/c++/cstdio'
p1506
sbsS's3eVibra.h'
p1507
g297
(g1095
g299
Ntp1508
Rp1509
(dp1510
g1099
g1100
sg1101
g1147
sg323
S'c:/marmalade/7.4/s3e/h/s3eVibra.h'
p1511
sbsS'jversion.h'
p1512
g297
(g1095
g299
Ntp1513
Rp1514
(dp1515
g1099
g1062
sg1101
g1248
sg323
g1081
sbsS'fnmatch.h'
p1516
g297
(g1095
g299
Ntp1517
Rp1518
(dp1519
g1099
g1100
sg1101
g1125
sg323
S'c:/marmalade/7.4/s3e/h/std/fnmatch.h'
p1520
sbsS'jdhuff.h'
p1521
g297
(g1095
g299
Ntp1522
Rp1523
(dp1524
g1099
g1062
sg1101
g1248
sg323
g1085
sbsS'stack'
p1525
g297
(g1095
g299
Ntp1526
Rp1527
(dp1528
g1099
g1100
sg1101
g1102
sg323
S'c:/marmalade/7.4/s3e/h/std/c++/stack'
p1529
sbsS'sendfile.h'
p1530
g297
(g1095
g299
Ntp1531
Rp1532
(dp1533
g1099
g1100
sg1101
g1289
sg323
S'c:/marmalade/7.4/s3e/h/std/sys/sendfile.h'
p1534
sbsS'strings.h'
p1535
g297
(g1095
g299
Ntp1536
Rp1537
(dp1538
g1099
g1100
sg1101
g1125
sg323
S'c:/marmalade/7.4/s3e/h/std/strings.h'
p1539
sbsS'inttypes.h'
p1540
g297
(g1095
g299
Ntp1541
Rp1542
(dp1543
g1099
g1100
sg1101
g1125
sg323
S'c:/marmalade/7.4/s3e/h/std/inttypes.h'
p1544
sbsS's3eAudio.h'
p1545
g297
(g1095
g299
Ntp1546
Rp1547
(dp1548
g1099
g1100
sg1101
g1147
sg323
S'c:/marmalade/7.4/s3e/h/s3eAudio.h'
p1549
sbsS'new'
p1550
g297
(g1095
g299
Ntp1551
Rp1552
(dp1553
g1099
g1100
sg1101
g1102
sg323
S'c:/marmalade/7.4/s3e/h/std/c++/new'
p1554
sbsS'IwImage.h'
p1555
g297
(g1095
g299
Ntp1556
Rp1557
(dp1558
g1099
g929
sg1101
g1111
sg323
g984
sbsS's3eImagePicker.h'
p1559
g297
(g1095
g299
Ntp1560
Rp1561
(dp1562
g1099
g1100
sg1101
g1263
sg323
S'c:/marmalade/7.4/s3e/h/ext/s3eImagePicker.h'
p1563
sbsS'temp_defines_debug.h'
p1564
g297
(g1095
g299
Ntp1565
Rp1566
(dp1567
g1099
(lp1568
sg1101
(lp1569
S"'generated files'"
p1570
asg323
S'e:/Documents/Michiel/Programmeren/Marmalade/MVSStage4/build_mvsstage4_vc12x/temp_defines_debug.h'
p1571
sbsS's3eExt.h'
p1572
g297
(g1095
g299
Ntp1573
Rp1574
(dp1575
g1099
g1100
sg1101
g1147
sg323
S'c:/marmalade/7.4/s3e/h/s3eExt.h'
p1576
sbsS'transupp.h'
p1577
g297
(g1095
g299
Ntp1578
Rp1579
(dp1580
g1099
g1062
sg1101
g1248
sg323
g1083
sbsS'IwMath.h'
p1581
g297
(g1095
g299
Ntp1582
Rp1583
(dp1584
g1099
g929
sg1101
g1111
sg323
g1004
sbsS's3eSurface.h'
p1585
g297
(g1095
g299
Ntp1586
Rp1587
(dp1588
g1099
g1100
sg1101
g1147
sg323
S'c:/marmalade/7.4/s3e/h/s3eSurface.h'
p1589
sbsS'time.h'
p1590
g297
(g1095
g299
Ntp1591
Rp1592
(dp1593
g1099
g1100
sg1101
g1125
sg323
S'c:/marmalade/7.4/s3e/h/std/time.h'
p1594
sbsS'stdlib.h'
p1595
g297
(g1095
g299
Ntp1596
Rp1597
(dp1598
g1099
g1100
sg1101
g1125
sg323
S'c:/marmalade/7.4/s3e/h/std/stdlib.h'
p1599
sbsS'gl3ext.h'
p1600
g297
(g1095
g299
Ntp1601
Rp1602
(dp1603
g1099
g1100
sg1101
(lp1604
g1103
aS'GL'
p1605
aS'GLES 3.0'
p1606
asg323
S'c:/marmalade/7.4/s3e/h/GLES3/gl3ext.h'
p1607
sbsS'stddef.h'
p1608
g297
(g1095
g299
Ntp1609
Rp1610
(dp1611
g1099
g1100
sg1101
g1125
sg323
S'c:/marmalade/7.4/s3e/h/std/stddef.h'
p1612
sbsS's3eWindow.h'
p1613
g297
(g1095
g299
Ntp1614
Rp1615
(dp1616
g1099
g1100
sg1101
g1263
sg323
S'c:/marmalade/7.4/s3e/h/ext/s3eWindow.h'
p1617
sbsS's3eMetrics.h'
p1618
g297
(g1095
g299
Ntp1619
Rp1620
(dp1621
g1099
g1100
sg1101
g1263
sg323
S'c:/marmalade/7.4/s3e/h/ext/s3eMetrics.h'
p1622
sbsS'IwCopyingPtr.h'
p1623
g297
(g1095
g299
Ntp1624
Rp1625
(dp1626
g1099
g929
sg1101
g1111
sg323
g934
sbsS'IwBuffer.h'
p1627
g297
(g1095
g299
Ntp1628
Rp1629
(dp1630
g1099
g929
sg1101
g1111
sg323
g940
sbsS'app.config.txt'
p1631
g297
(g1095
g299
Ntp1632
Rp1633
(dp1634
g1099
(dp1635
sg1101
g4
sg323
S'e:/Documents/Michiel/Programmeren/Marmalade/MVSStage4/data/app.config.txt'
p1636
sbsS'iostream'
p1637
g297
(g1095
g299
Ntp1638
Rp1639
(dp1640
g1099
g1100
sg1101
g1102
sg323
S'c:/marmalade/7.4/s3e/h/std/c++/iostream'
p1641
sbsS'png.h'
p1642
g297
(g1095
g299
Ntp1643
Rp1644
(dp1645
g1099
g1051
sg1101
(lp1646
g1046
ag1036
asg323
g1049
sbsS'glplatform.h'
p1647
g297
(g1095
g299
Ntp1648
Rp1649
(dp1650
g1099
g1100
sg1101
(lp1651
g1103
aS'GL'
p1652
aS'GLES 1.x'
p1653
asg323
S'c:/marmalade/7.4/s3e/h/GLES/glplatform.h'
p1654
sbsS'app.icf'
p1655
g297
(g1095
g299
Ntp1656
Rp1657
(dp1658
g1099
(dp1659
sg1101
g4
sg323
S'e:/Documents/Michiel/Programmeren/Marmalade/MVSStage4/data/app.icf'
p1660
sbsS'ucontext.h'
p1661
g297
(g1095
g299
Ntp1662
Rp1663
(dp1664
g1099
g1100
sg1101
g1125
sg323
S'c:/marmalade/7.4/s3e/h/std/ucontext.h'
p1665
sbsS'setjmp_win32.h'
p1666
g297
(g1095
g299
Ntp1667
Rp1668
(dp1669
g1099
g1100
sg1101
g1125
sg323
S'c:/marmalade/7.4/s3e/h/std/setjmp_win32.h'
p1670
sbsS'unistd.h'
p1671
g297
(g1095
g299
Ntp1672
Rp1673
(dp1674
g1099
g1100
sg1101
g1125
sg323
S'c:/marmalade/7.4/s3e/h/std/unistd.h'
p1675
sbsS's3eSecureStorage.h'
p1676
g297
(g1095
g299
Ntp1677
Rp1678
(dp1679
g1099
g1100
sg1101
g1147
sg323
S'c:/marmalade/7.4/s3e/h/s3eSecureStorage.h'
p1680
sbsS'string.h'
p1681
g297
(g1095
g299
Ntp1682
Rp1683
(dp1684
g1099
g1100
sg1101
g1125
sg323
S'c:/marmalade/7.4/s3e/h/std/string.h'
p1685
sbsS'IwResource.h'
p1686
g297
(g1095
g299
Ntp1687
Rp1688
(dp1689
g1099
g929
sg1101
g1111
sg323
g944
sbsS'libjpeg.mkf'
p1690
g297
(g1095
g299
Ntp1691
Rp1692
(dp1693
g1099
g1091
sg1101
(lp1694
g1057
asg323
g1089
sbsS'IwChar.h'
p1695
g297
(g1095
g299
Ntp1696
Rp1697
(dp1698
g1099
g929
sg1101
g1111
sg323
g992
sbsS'streambuf.h'
p1699
g297
(g1095
g299
Ntp1700
Rp1701
(dp1702
g1099
g1100
sg1101
g1102
sg323
S'c:/marmalade/7.4/s3e/h/std/c++/streambuf.h'
p1703
sbsS'IwRuntime.h'
p1704
g297
(g1095
g299
Ntp1705
Rp1706
(dp1707
g1099
g929
sg1101
g1111
sg323
g974
sbsS'float.h'
p1708
g297
(g1095
g299
Ntp1709
Rp1710
(dp1711
g1099
g1100
sg1101
g1125
sg323
S'c:/marmalade/7.4/s3e/h/std/float.h'
p1712
sbsS'iomanip.h'
p1713
g297
(g1095
g299
Ntp1714
Rp1715
(dp1716
g1099
g1100
sg1101
g1102
sg323
S'c:/marmalade/7.4/s3e/h/std/c++/iomanip.h'
p1717
sbsS'limits'
p1718
g297
(g1095
g299
Ntp1719
Rp1720
(dp1721
g1099
g1100
sg1101
g1102
sg323
S'c:/marmalade/7.4/s3e/h/std/c++/limits'
p1722
sbsS'gl2platform.h'
p1723
g297
(g1095
g299
Ntp1724
Rp1725
(dp1726
g1099
g1100
sg1101
g1364
sg323
S'c:/marmalade/7.4/s3e/h/GLES2/gl2platform.h'
p1727
sbsS'queue'
p1728
g297
(g1095
g299
Ntp1729
Rp1730
(dp1731
g1099
g1100
sg1101
g1102
sg323
S'c:/marmalade/7.4/s3e/h/std/c++/queue'
p1732
sbsS'wchar.h'
p1733
g297
(g1095
g299
Ntp1734
Rp1735
(dp1736
g1099
g1100
sg1101
g1125
sg323
S'c:/marmalade/7.4/s3e/h/std/wchar.h'
p1737
sbsS's3eContacts.h'
p1738
g297
(g1095
g299
Ntp1739
Rp1740
(dp1741
g1099
g1100
sg1101
g1147
sg323
S'c:/marmalade/7.4/s3e/h/s3eContacts.h'
p1742
sbsS'IwKeymap.h'
p1743
g297
(g1095
g299
Ntp1744
Rp1745
(dp1746
g1099
g929
sg1101
g1111
sg323
g942
sbsS'IwDebug.h'
p1747
g297
(g1095
g299
Ntp1748
Rp1749
(dp1750
g1099
g929
sg1101
g1111
sg323
g936
sbsS'IwVariableBitField.h'
p1751
g297
(g1095
g299
Ntp1752
Rp1753
(dp1754
g1099
g929
sg1101
g1111
sg323
g938
sbsS's3eCameraCapture.h'
p1755
g297
(g1095
g299
Ntp1756
Rp1757
(dp1758
g1099
g1100
sg1101
g1263
sg323
S'c:/marmalade/7.4/s3e/h/ext/s3eCameraCapture.h'
p1759
sbsS'eglext.h'
p1760
g297
(g1095
g299
Ntp1761
Rp1762
(dp1763
g1099
g1100
sg1101
(lp1764
g1103
aS'GL'
p1765
aS'EGL'
p1766
asg323
S'c:/marmalade/7.4/s3e/h/EGL/eglext.h'
p1767
sbsS'time_1.h'
p1768
g297
(g1095
g299
Ntp1769
Rp1770
(dp1771
g1099
g1100
sg1101
g1289
sg323
S'c:/marmalade/7.4/s3e/h/std/sys/time.h'
p1772
sbsS'IwTextParser.h'
p1773
g297
(g1095
g299
Ntp1774
Rp1775
(dp1776
g1099
g929
sg1101
g1111
sg323
g927
sbsS'IwDivTable.h'
p1777
g297
(g1095
g299
Ntp1778
Rp1779
(dp1780
g1099
g929
sg1101
g1111
sg323
g1025
sbsS's3eTimer.h'
p1781
g297
(g1095
g299
Ntp1782
Rp1783
(dp1784
g1099
g1100
sg1101
g1147
sg323
S'c:/marmalade/7.4/s3e/h/s3eTimer.h'
p1785
sbsS'socket.h'
p1786
g297
(g1095
g299
Ntp1787
Rp1788
(dp1789
g1099
g1100
sg1101
g1289
sg323
S'c:/marmalade/7.4/s3e/h/std/sys/socket.h'
p1790
sbsS'IwSerialise.h'
p1791
g297
(g1095
g299
Ntp1792
Rp1793
(dp1794
g1099
g929
sg1101
g1111
sg323
g960
sbsS'malloc.h'
p1795
g297
(g1095
g299
Ntp1796
Rp1797
(dp1798
g1099
g1100
sg1101
g1125
sg323
S'c:/marmalade/7.4/s3e/h/std/malloc.h'
p1799
sbsS'signal_1.h'
p1800
g297
(g1095
g299
Ntp1801
Rp1802
(dp1803
g1099
g1100
sg1101
g1289
sg323
S'c:/marmalade/7.4/s3e/h/std/sys/signal.h'
p1804
sbsS'cstdarg'
p1805
g297
(g1095
g299
Ntp1806
Rp1807
(dp1808
g1099
g1100
sg1101
g1102
sg323
S'c:/marmalade/7.4/s3e/h/std/c++/cstdarg'
p1809
sbsS'typeinfo'
p1810
g297
(g1095
g299
Ntp1811
Rp1812
(dp1813
g1099
g1100
sg1101
g1102
sg323
S'c:/marmalade/7.4/s3e/h/std/c++/typeinfo'
p1814
sbsS'stdarg.h'
p1815
g297
(g1095
g299
Ntp1816
Rp1817
(dp1818
g1099
g1100
sg1101
g1125
sg323
S'c:/marmalade/7.4/s3e/h/std/stdarg.h'
p1819
sbsS'strstream.h'
p1820
g297
(g1095
g299
Ntp1821
Rp1822
(dp1823
g1099
g1100
sg1101
g1102
sg323
S'c:/marmalade/7.4/s3e/h/std/c++/strstream.h'
p1824
sbsS'shm.h'
p1825
g297
(g1095
g299
Ntp1826
Rp1827
(dp1828
g1099
g1100
sg1101
g1289
sg323
S'c:/marmalade/7.4/s3e/h/std/sys/shm.h'
p1829
sbsS'jpegint.h'
p1830
g297
(g1095
g299
Ntp1831
Rp1832
(dp1833
g1099
g1062
sg1101
g1248
sg323
g1065
sbsS'set'
p1834
g297
(g1095
g299
Ntp1835
Rp1836
(dp1837
g1099
g1100
sg1101
g1102
sg323
S'c:/marmalade/7.4/s3e/h/std/c++/set'
p1838
sbsS'endian.h'
p1839
g297
(g1095
g299
Ntp1840
Rp1841
(dp1842
g1099
g1100
sg1101
g1125
sg323
S'c:/marmalade/7.4/s3e/h/std/endian.h'
p1843
sbsS'gl2ext.h'
p1844
g297
(g1095
g299
Ntp1845
Rp1846
(dp1847
g1099
g1100
sg1101
g1364
sg323
S'c:/marmalade/7.4/s3e/h/GLES2/gl2ext.h'
p1848
sbsS'setjmp.h'
p1849
g297
(g1095
g299
Ntp1850
Rp1851
(dp1852
g1099
g1100
sg1101
g1125
sg323
S'c:/marmalade/7.4/s3e/h/std/setjmp.h'
p1853
sbsS'mem.h'
p1854
g297
(g1095
g299
Ntp1855
Rp1856
(dp1857
g1099
g1100
sg1101
g1102
sg323
S'c:/marmalade/7.4/s3e/h/std/c++/mem.h'
p1858
sbsS'un.h'
p1859
g297
(g1095
g299
Ntp1860
Rp1861
(dp1862
g1099
g1100
sg1101
g1289
sg323
S'c:/marmalade/7.4/s3e/h/std/sys/un.h'
p1863
sbsS'MVSStage4_main.cpp'
p1864
g297
(g1095
g299
Ntp1865
Rp1866
(dp1867
g1099
g1033
sg1101
(lp1868
g1029
asg323
g1031
sbsS's3eCompression.h'
p1869
g297
(g1095
g299
Ntp1870
Rp1871
(dp1872
g1099
g1100
sg1101
g1147
sg323
S'c:/marmalade/7.4/s3e/h/s3eCompression.h'
p1873
sbsS's3eSound.h'
p1874
g297
(g1095
g299
Ntp1875
Rp1876
(dp1877
g1099
g1100
sg1101
g1147
sg323
S'c:/marmalade/7.4/s3e/h/s3eSound.h'
p1878
sbsS'glob.h'
p1879
g297
(g1095
g299
Ntp1880
Rp1881
(dp1882
g1099
g1100
sg1101
g1125
sg323
S'c:/marmalade/7.4/s3e/h/std/glob.h'
p1883
sbsS'IwClassFactory.h'
p1884
g297
(g1095
g299
Ntp1885
Rp1886
(dp1887
g1099
g929
sg1101
g1111
sg323
g962
sbsS'file.h'
p1888
g297
(g1095
g299
Ntp1889
Rp1890
(dp1891
g1099
g1100
sg1101
g1289
sg323
S'c:/marmalade/7.4/s3e/h/std/sys/file.h'
p1892
sbsS's3eIOSBackgroundAudio.h'
p1893
g297
(g1095
g299
Ntp1894
Rp1895
(dp1896
g1099
g1100
sg1101
g1263
sg323
S'c:/marmalade/7.4/s3e/h/ext/s3eIOSBackgroundAudio.h'
p1897
sbsS'IwOptimiseThumb.h'
p1898
g297
(g1095
g299
Ntp1899
Rp1900
(dp1901
g1099
g929
sg1101
g1111
sg323
g1017
sbsS'cstring'
p1902
g297
(g1095
g299
Ntp1903
Rp1904
(dp1905
g1099
g1100
sg1101
g1102
sg323
S'c:/marmalade/7.4/s3e/h/std/c++/cstring'
p1906
sbsS'exception.h'
p1907
g297
(g1095
g299
Ntp1908
Rp1909
(dp1910
g1099
g1100
sg1101
g1102
sg323
S'c:/marmalade/7.4/s3e/h/std/c++/exception.h'
p1911
sbsS's3eCamera.h'
p1912
g297
(g1095
g299
Ntp1913
Rp1914
(dp1915
g1099
g1100
sg1101
g1147
sg323
S'c:/marmalade/7.4/s3e/h/s3eCamera.h'
p1916
sbsS'jconfig.h'
p1917
g297
(g1095
g299
Ntp1918
Rp1919
(dp1920
g1099
g1062
sg1101
g1248
sg323
g1073
sbsS'clocale'
p1921
g297
(g1095
g299
Ntp1922
Rp1923
(dp1924
g1099
g1100
sg1101
g1102
sg323
S'c:/marmalade/7.4/s3e/h/std/c++/clocale'
p1925
sbsS'memory'
p1926
g297
(g1095
g299
Ntp1927
Rp1928
(dp1929
g1099
g1100
sg1101
g1102
sg323
S'c:/marmalade/7.4/s3e/h/std/c++/memory'
p1930
sbsS'egl.h'
p1931
g297
(g1095
g299
Ntp1932
Rp1933
(dp1934
g1099
g1100
sg1101
g1764
sg323
S'c:/marmalade/7.4/s3e/h/EGL/egl.h'
p1935
sbsS'egl_1.h'
p1936
g297
(g1095
g299
Ntp1937
Rp1938
(dp1939
g1099
g1100
sg1101
g1651
sg323
S'c:/marmalade/7.4/s3e/h/GLES/egl.h'
p1940
sbsS'IwMemManagerDL.h'
p1941
g297
(g1095
g299
Ntp1942
Rp1943
(dp1944
g1099
g929
sg1101
g1111
sg323
g1023
sbsS'iwutil.config.txt'
p1945
g297
(g1095
g299
Ntp1946
Rp1947
(dp1948
g1099
g929
sg1101
g1111
sg323
g968
sbsS'deque'
p1949
g297
(g1095
g299
Ntp1950
Rp1951
(dp1952
g1099
g1100
sg1101
g1102
sg323
S'c:/marmalade/7.4/s3e/h/std/c++/deque'
p1953
sbsS'IwString.h'
p1954
g297
(g1095
g299
Ntp1955
Rp1956
(dp1957
g1099
g929
sg1101
g1111
sg323
g1008
sbsS's3eCrypto.h'
p1958
g297
(g1095
g299
Ntp1959
Rp1960
(dp1961
g1099
g1100
sg1101
g1147
sg323
S'c:/marmalade/7.4/s3e/h/s3eCrypto.h'
p1962
sbsS'zlib.h'
p1963
g297
(g1095
g299
Ntp1964
Rp1965
(dp1966
g1099
g1040
sg1101
g1473
sg323
g1041
sbsS's3eSMS.h'
p1967
g297
(g1095
g299
Ntp1968
Rp1969
(dp1970
g1099
g1100
sg1101
g1263
sg323
S'c:/marmalade/7.4/s3e/h/ext/s3eSMS.h'
p1971
sbsS'cctype'
p1972
g297
(g1095
g299
Ntp1973
Rp1974
(dp1975
g1099
g1100
sg1101
g1102
sg323
S'c:/marmalade/7.4/s3e/h/std/c++/cctype'
p1976
sbsS'limits.h'
p1977
g297
(g1095
g299
Ntp1978
Rp1979
(dp1980
g1099
g1100
sg1101
g1125
sg323
S'c:/marmalade/7.4/s3e/h/std/limits.h'
p1981
sbsS'stdexcept'
p1982
g297
(g1095
g299
Ntp1983
Rp1984
(dp1985
g1099
g1100
sg1101
g1102
sg323
S'c:/marmalade/7.4/s3e/h/std/c++/stdexcept'
p1986
sbsS'fcntl.h'
p1987
g297
(g1095
g299
Ntp1988
Rp1989
(dp1990
g1099
g1100
sg1101
g1125
sg323
S'c:/marmalade/7.4/s3e/h/std/fcntl.h'
p1991
sbsS'sigcontext.h'
p1992
g297
(g1095
g299
Ntp1993
Rp1994
(dp1995
g1099
g1100
sg1101
g1125
sg323
S'c:/marmalade/7.4/s3e/h/std/sigcontext.h'
p1996
sbsS'iwutil.mkf'
p1997
g297
(g1095
g299
Ntp1998
Rp1999
(dp2000
g1099
g1012
sg1101
g1111
sg323
g1010
sbsS'csignal'
p2001
g297
(g1095
g299
Ntp2002
Rp2003
(dp2004
g1099
g1100
sg1101
g1102
sg323
S'c:/marmalade/7.4/s3e/h/std/c++/csignal'
p2005
sbsS'ostream.h'
p2006
g297
(g1095
g299
Ntp2007
Rp2008
(dp2009
g1099
g1100
sg1101
g1102
sg323
S'c:/marmalade/7.4/s3e/h/std/c++/ostream.h'
p2010
sbsS'types.h'
p2011
g297
(g1095
g299
Ntp2012
Rp2013
(dp2014
g1099
g1100
sg1101
g1289
sg323
S'c:/marmalade/7.4/s3e/h/std/sys/types.h'
p2015
sbsS'pthread_types.h'
p2016
g297
(g1095
g299
Ntp2017
Rp2018
(dp2019
g1099
g1100
sg1101
g1125
sg323
S'c:/marmalade/7.4/s3e/h/std/pthread_types.h'
p2020
sbsS'ifaddrs.h'
p2021
g297
(g1095
g299
Ntp2022
Rp2023
(dp2024
g1099
g1100
sg1101
g1125
sg323
S'c:/marmalade/7.4/s3e/h/std/ifaddrs.h'
p2025
sbsS'memory.h'
p2026
g297
(g1095
g299
Ntp2027
Rp2028
(dp2029
g1099
g1100
sg1101
g1125
sg323
S'c:/marmalade/7.4/s3e/h/std/memory.h'
p2030
sbsS'gl.h'
p2031
g297
(g1095
g299
Ntp2032
Rp2033
(dp2034
g1099
g1100
sg1101
g1651
sg323
S'c:/marmalade/7.4/s3e/h/GLES/gl.h'
p2035
sbsS'getopt.h'
p2036
g297
(g1095
g299
Ntp2037
Rp2038
(dp2039
g1099
g1100
sg1101
g1125
sg323
S'c:/marmalade/7.4/s3e/h/std/getopt.h'
p2040
sbsS'cmath'
p2041
g297
(g1095
g299
Ntp2042
Rp2043
(dp2044
g1099
g1100
sg1101
g1102
sg323
S'c:/marmalade/7.4/s3e/h/std/c++/cmath'
p2045
sbsS'strstream'
p2046
g297
(g1095
g299
Ntp2047
Rp2048
(dp2049
g1099
g1100
sg1101
g1102
sg323
S'c:/marmalade/7.4/s3e/h/std/c++/strstream'
p2050
sbsS'IwOptimiseARM.h'
p2051
g297
(g1095
g299
Ntp2052
Rp2053
(dp2054
g1099
g929
sg1101
g1111
sg323
g982
sbsS'times.h'
p2055
g297
(g1095
g299
Ntp2056
Rp2057
(dp2058
g1099
g1100
sg1101
g1289
sg323
S'c:/marmalade/7.4/s3e/h/std/sys/times.h'
p2059
sbsS'exception'
p2060
g297
(g1095
g299
Ntp2061
Rp2062
(dp2063
g1099
g1100
sg1101
g1102
sg323
S'c:/marmalade/7.4/s3e/h/std/c++/exception'
p2064
sbsS'pthread.h'
p2065
g297
(g1095
g299
Ntp2066
Rp2067
(dp2068
g1099
g1100
sg1101
g1125
sg323
S'c:/marmalade/7.4/s3e/h/std/pthread.h'
p2069
sbsS'IwTextParserITX.h'
p2070
g297
(g1095
g299
Ntp2071
Rp2072
(dp2073
g1099
g929
sg1101
g1111
sg323
g948
sbsS'rlocks.h'
p2074
g297
(g1095
g299
Ntp2075
Rp2076
(dp2077
g1099
g1100
sg1101
g1102
sg323
S'c:/marmalade/7.4/s3e/h/std/c++/rlocks.h'
p2078
sbsS'functional'
p2079
g297
(g1095
g299
Ntp2080
Rp2081
(dp2082
g1099
g1100
sg1101
g1102
sg323
S'c:/marmalade/7.4/s3e/h/std/c++/functional'
p2083
sbsS'ioctl.h'
p2084
g297
(g1095
g299
Ntp2085
Rp2086
(dp2087
g1099
g1100
sg1101
g1289
sg323
S'c:/marmalade/7.4/s3e/h/std/sys/ioctl.h'
p2088
sbsS'rope'
p2089
g297
(g1095
g299
Ntp2090
Rp2091
(dp2092
g1099
g1100
sg1101
g1102
sg323
S'c:/marmalade/7.4/s3e/h/std/c++/rope'
p2093
sbsS's3eAndroidJNI.h'
p2094
g297
(g1095
g299
Ntp2095
Rp2096
(dp2097
g1099
g1100
sg1101
g1263
sg323
S'c:/marmalade/7.4/s3e/h/ext/s3eAndroidJNI.h'
p2098
sbsS'jinclude.h'
p2099
g297
(g1095
g299
Ntp2100
Rp2101
(dp2102
g1099
g1062
sg1101
g1248
sg323
g1075
sbsS'IwEvent.h'
p2103
g297
(g1095
g299
Ntp2104
Rp2105
(dp2106
g1099
g929
sg1101
g1111
sg323
g1002
sbsS'IwTypes.h'
p2107
g297
(g1095
g299
Ntp2108
Rp2109
(dp2110
g1099
g929
sg1101
g1111
sg323
g964
sbsS's3eSocket.h'
p2111
g297
(g1095
g299
Ntp2112
Rp2113
(dp2114
g1099
g1100
sg1101
g1147
sg323
S'c:/marmalade/7.4/s3e/h/s3eSocket.h'
p2115
sbsS'IwOptimiseSize.h'
p2116
g297
(g1095
g299
Ntp2117
Rp2118
(dp2119
g1099
g929
sg1101
g1111
sg323
g1027
sbsS'IwAutoFile.h'
p2120
g297
(g1095
g299
Ntp2121
Rp2122
(dp2123
g1099
g929
sg1101
g1111
sg323
g1006
sbsS'iconv.h'
p2124
g297
(g1095
g299
Ntp2125
Rp2126
(dp2127
g1099
g1100
sg1101
g1125
sg323
S'c:/marmalade/7.4/s3e/h/std/iconv.h'
p2128
sbsS'ipc.h'
p2129
g297
(g1095
g299
Ntp2130
Rp2131
(dp2132
g1099
g1100
sg1101
g1289
sg323
S'c:/marmalade/7.4/s3e/h/std/sys/ipc.h'
p2133
sbsS's3eDevice.h'
p2134
g297
(g1095
g299
Ntp2135
Rp2136
(dp2137
g1099
g1100
sg1101
g1147
sg323
S'c:/marmalade/7.4/s3e/h/s3eDevice.h'
p2138
sbsS'poll_1.h'
p2139
g297
(g1095
g299
Ntp2140
Rp2141
(dp2142
g1099
g1100
sg1101
g1289
sg323
S'c:/marmalade/7.4/s3e/h/std/sys/poll.h'
p2143
sbsS's3eThread.h'
p2144
g297
(g1095
g299
Ntp2145
Rp2146
(dp2147
g1099
g1100
sg1101
g1147
sg323
S'c:/marmalade/7.4/s3e/h/s3eThread.h'
p2148
sbsS'stl_user_config.h'
p2149
g297
(g1095
g299
Ntp2150
Rp2151
(dp2152
g1099
g1100
sg1101
g1102
sg323
S'c:/marmalade/7.4/s3e/h/std/c++/stl_user_config.h'
p2153
sbsS'IwList.h'
p2154
g297
(g1095
g299
Ntp2155
Rp2156
(dp2157
g1099
g929
sg1101
g1111
sg323
g958
sbsS'langinfo.h'
p2158
g297
(g1095
g299
Ntp2159
Rp2160
(dp2161
g1099
g1100
sg1101
g1125
sg323
S'c:/marmalade/7.4/s3e/h/std/langinfo.h'
p2162
sbsS's3edebugHeap.h'
p2163
g297
(g1095
g299
Ntp2164
Rp2165
(dp2166
g1099
g1100
sg1101
g1263
sg323
S'c:/marmalade/7.4/s3e/h/ext/s3edebugHeap.h'
p2167
sbsS'jdct.h'
p2168
g297
(g1095
g299
Ntp2169
Rp2170
(dp2171
g1099
g1062
sg1101
g1248
sg323
g1079
sbsS'AirplayVersion.h'
p2172
g297
(g1095
g299
Ntp2173
Rp2174
(dp2175
g1099
g1100
sg1101
g1147
sg323
S'c:/marmalade/7.4/s3e/h/AirplayVersion.h'
p2176
sbsS'jchuff.h'
p2177
g297
(g1095
g299
Ntp2178
Rp2179
(dp2180
g1099
g1062
sg1101
g1248
sg323
g1071
sbsS'IwProfileMenu.h'
p2181
g297
(g1095
g299
Ntp2182
Rp2183
(dp2184
g1099
g929
sg1101
g1111
sg323
g954
sbsS's3eSoundRecord.h'
p2185
g297
(g1095
g299
Ntp2186
Rp2187
(dp2188
g1099
g1100
sg1101
g1147
sg323
S'c:/marmalade/7.4/s3e/h/s3eSoundRecord.h'
p2189
sbsS'gl2extimg.h'
p2190
g297
(g1095
g299
Ntp2191
Rp2192
(dp2193
g1099
g1100
sg1101
g1364
sg323
S'c:/marmalade/7.4/s3e/h/GLES2/gl2extimg.h'
p2194
sbsS'IwFibre.h'
p2195
g297
(g1095
g299
Ntp2196
Rp2197
(dp2198
g1099
g929
sg1101
g1111
sg323
g1015
sbsS's3eConfig.h'
p2199
g297
(g1095
g299
Ntp2200
Rp2201
(dp2202
g1099
g1100
sg1101
g1147
sg323
S'c:/marmalade/7.4/s3e/h/s3eConfig.h'
p2203
sbsS'IwHashString.h'
p2204
g297
(g1095
g299
Ntp2205
Rp2206
(dp2207
g1099
g929
sg1101
g1111
sg323
g952
sbsS'stat.h'
p2208
g297
(g1095
g299
Ntp2209
Rp2210
(dp2211
g1099
g1100
sg1101
g1289
sg323
S'c:/marmalade/7.4/s3e/h/std/sys/stat.h'
p2212
sbsS's3eVersion.h'
p2213
g297
(g1095
g299
Ntp2214
Rp2215
(dp2216
g1099
g1100
sg1101
g1147
sg323
S'c:/marmalade/7.4/s3e/h/s3eVersion.h'
p2217
sbsS'MarmaladeVersion.h'
p2218
g297
(g1095
g299
Ntp2219
Rp2220
(dp2221
g1099
g1100
sg1101
g1147
sg323
S'c:/marmalade/7.4/s3e/h/MarmaladeVersion.h'
p2222
sbsS'utility'
p2223
g297
(g1095
g299
Ntp2224
Rp2225
(dp2226
g1099
g1100
sg1101
g1102
sg323
S'c:/marmalade/7.4/s3e/h/std/c++/utility'
p2227
sbsS'syslog.h'
p2228
g297
(g1095
g299
Ntp2229
Rp2230
(dp2231
g1099
g1100
sg1101
g1125
sg323
S'c:/marmalade/7.4/s3e/h/std/syslog.h'
p2232
sbsS'IwUtilInitTerm.h'
p2233
g297
(g1095
g299
Ntp2234
Rp2235
(dp2236
g1099
g929
sg1101
g1111
sg323
g932
sbsS'byteswap.h'
p2237
g297
(g1095
g299
Ntp2238
Rp2239
(dp2240
g1099
g1100
sg1101
g1125
sg323
S'c:/marmalade/7.4/s3e/h/std/byteswap.h'
p2241
sbsS'ios.h'
p2242
g297
(g1095
g299
Ntp2243
Rp2244
(dp2245
g1099
g1100
sg1101
g1102
sg323
S'c:/marmalade/7.4/s3e/h/std/c++/ios.h'
p2246
sbsS'bitset'
p2247
g297
(g1095
g299
Ntp2248
Rp2249
(dp2250
g1099
g1100
sg1101
g1102
sg323
S'c:/marmalade/7.4/s3e/h/std/c++/bitset'
p2251
sbsS'IwImageHelper.h'
p2252
g297
(g1095
g299
Ntp2253
Rp2254
(dp2255
g1099
g929
sg1101
g1111
sg323
g986
sbsS's3eKeyboard.h'
p2256
g297
(g1095
g299
Ntp2257
Rp2258
(dp2259
g1099
g1100
sg1101
g1147
sg323
S'c:/marmalade/7.4/s3e/h/s3eKeyboard.h'
p2260
sbsS'pthread_1.h'
p2261
g297
(g1095
g299
Ntp2262
Rp2263
(dp2264
g1099
g1100
sg1101
g1102
sg323
S'c:/marmalade/7.4/s3e/h/std/c++/pthread.h'
p2265
sbsS'IwMemBucket.h'
p2266
g297
(g1095
g299
Ntp2267
Rp2268
(dp2269
g1099
g929
sg1101
g1111
sg323
g988
sbsS's3e.mkf'
p2270
g297
(g1095
g299
Ntp2271
Rp2272
(dp2273
g1099
(dp2274
sg1101
g1147
sg323
S'c:/marmalade/7.4/s3e/s3e.mkf'
p2275
sbsS'hash_set'
p2276
g297
(g1095
g299
Ntp2277
Rp2278
(dp2279
g1099
g1100
sg1101
g1102
sg323
S'c:/marmalade/7.4/s3e/h/std/c++/hash_set'
p2280
sbsS's3eTypes.h'
p2281
g297
(g1095
g299
Ntp2282
Rp2283
(dp2284
g1099
g1100
sg1101
g1147
sg323
S'c:/marmalade/7.4/s3e/h/s3eTypes.h'
p2285
sbsS'complex'
p2286
g297
(g1095
g299
Ntp2287
Rp2288
(dp2289
g1099
g1100
sg1101
g1102
sg323
S'c:/marmalade/7.4/s3e/h/std/c++/complex'
p2290
sbsS'jmorecfg.h'
p2291
g297
(g1095
g299
Ntp2292
Rp2293
(dp2294
g1099
g1062
sg1101
g1248
sg323
g1087
sbsS'eglplatform.h'
p2295
g297
(g1095
g299
Ntp2296
Rp2297
(dp2298
g1099
g1100
sg1101
g1764
sg323
S'c:/marmalade/7.4/s3e/h/EGL/eglplatform.h'
p2299
sbsS'signal_2.h'
p2300
g297
(g1095
g299
Ntp2301
Rp2302
(dp2303
g1099
g1100
sg1101
g1102
sg323
S'c:/marmalade/7.4/s3e/h/std/c++/signal.h'
p2304
sbsS'stdbool.h'
p2305
g297
(g1095
g299
Ntp2306
Rp2307
(dp2308
g1099
g1100
sg1101
g1125
sg323
S'c:/marmalade/7.4/s3e/h/std/stdbool.h'
p2309
sbsS's3e.icf'
p2310
g297
(g1095
g299
Ntp2311
Rp2312
(dp2313
g1099
g1100
sg1101
g1147
sg323
S'c:/marmalade/7.4/s3e/s3e.icf'
p2314
sbsS'math_gcc.h'
p2315
g297
(g1095
g299
Ntp2316
Rp2317
(dp2318
g1099
g1100
sg1101
g1125
sg323
S'c:/marmalade/7.4/s3e/h/std/math_gcc.h'
p2319
sbsS's3eMemory.h'
p2320
g297
(g1095
g299
Ntp2321
Rp2322
(dp2323
g1099
g1100
sg1101
g1147
sg323
S'c:/marmalade/7.4/s3e/h/s3eMemory.h'
p2324
sbsS'map'
p2325
g297
(g1095
g299
Ntp2326
Rp2327
(dp2328
g1099
g1100
sg1101
g1102
sg323
S'c:/marmalade/7.4/s3e/h/std/c++/map'
p2329
sbsS'sem.h'
p2330
g297
(g1095
g299
Ntp2331
Rp2332
(dp2333
g1099
g1100
sg1101
g1289
sg323
S'c:/marmalade/7.4/s3e/h/std/sys/sem.h'
p2334
sbsS'IwOptimiseSpeed.h'
p2335
g297
(g1095
g299
Ntp2336
Rp2337
(dp2338
g1099
g929
sg1101
g1111
sg323
g980
sbsS's3eLicense.h'
p2339
g297
(g1095
g299
Ntp2340
Rp2341
(dp2342
g1099
g1100
sg1101
g1147
sg323
S'c:/marmalade/7.4/s3e/h/s3eLicense.h'
p2343
sbsS'stdio.h'
p2344
g297
(g1095
g299
Ntp2345
Rp2346
(dp2347
g1099
g1100
sg1101
g1125
sg323
S'c:/marmalade/7.4/s3e/h/std/stdio.h'
p2348
sbsS's3eFile.h'
p2349
g297
(g1095
g299
Ntp2350
Rp2351
(dp2352
g1099
g1100
sg1101
g1147
sg323
S'c:/marmalade/7.4/s3e/h/s3eFile.h'
p2353
sbsS'jmemsys.h'
p2354
g297
(g1095
g299
Ntp2355
Rp2356
(dp2357
g1099
g1062
sg1101
g1248
sg323
g1063
sbsS'ios'
p2358
g297
(g1095
g299
Ntp2359
Rp2360
(dp2361
g1099
g1100
sg1101
g1102
sg323
S'c:/marmalade/7.4/s3e/h/std/c++/ios'
p2362
sbsS'gl3platform.h'
p2363
g297
(g1095
g299
Ntp2364
Rp2365
(dp2366
g1099
g1100
sg1101
g1604
sg323
S'c:/marmalade/7.4/s3e/h/GLES3/gl3platform.h'
p2367
sbsS'msl_string.h'
p2368
g297
(g1095
g299
Ntp2369
Rp2370
(dp2371
g1099
g1100
sg1101
g1102
sg323
S'c:/marmalade/7.4/s3e/h/std/c++/msl_string.h'
p2372
sbsS'select.h'
p2373
g297
(g1095
g299
Ntp2374
Rp2375
(dp2376
g1099
g1100
sg1101
g1289
sg323
S'c:/marmalade/7.4/s3e/h/std/sys/select.h'
p2377
sbsS'cerrno'
p2378
g297
(g1095
g299
Ntp2379
Rp2380
(dp2381
g1099
g1100
sg1101
g1102
sg323
S'c:/marmalade/7.4/s3e/h/std/c++/cerrno'
p2382
sbsS'slist'
p2383
g297
(g1095
g299
Ntp2384
Rp2385
(dp2386
g1099
g1100
sg1101
g1102
sg323
S'c:/marmalade/7.4/s3e/h/std/c++/slist'
p2387
sbsS'cstdlib'
p2388
g297
(g1095
g299
Ntp2389
Rp2390
(dp2391
g1099
g1100
sg1101
g1102
sg323
S'c:/marmalade/7.4/s3e/h/std/c++/cstdlib'
p2392
sbsS's3eLocation.h'
p2393
g297
(g1095
g299
Ntp2394
Rp2395
(dp2396
g1099
g1100
sg1101
g1147
sg323
S'c:/marmalade/7.4/s3e/h/s3eLocation.h'
p2397
sbsS'zlib.mkf'
p2398
g297
(g1095
g299
Ntp2399
Rp2400
(dp2401
g1099
g1045
sg1101
(lp2402
g1034
asg323
g1043
sbsS'resource.h'
p2403
g297
(g1095
g299
Ntp2404
Rp2405
(dp2406
g1099
g1100
sg1101
g1289
sg323
S'c:/marmalade/7.4/s3e/h/std/sys/resource.h'
p2407
sbsS'pwd.h'
p2408
g297
(g1095
g299
Ntp2409
Rp2410
(dp2411
g1099
g1100
sg1101
g1125
sg323
S'c:/marmalade/7.4/s3e/h/std/pwd.h'
p2412
sbsS'signal.h'
p2413
g297
(g1095
g299
Ntp2414
Rp2415
(dp2416
g1099
g1100
sg1101
g1125
sg323
S'c:/marmalade/7.4/s3e/h/std/signal.h'
p2417
sbsS'csetjmp'
p2418
g297
(g1095
g299
Ntp2419
Rp2420
(dp2421
g1099
g1100
sg1101
g1102
sg323
S'c:/marmalade/7.4/s3e/h/std/c++/csetjmp'
p2422
sbsS's3eLibrary.h'
p2423
g297
(g1095
g299
Ntp2424
Rp2425
(dp2426
g1099
g1100
sg1101
g1263
sg323
S'c:/marmalade/7.4/s3e/h/ext/s3eLibrary.h'
p2427
sbsS'libpng.mkf'
p2428
g297
(g1095
g299
Ntp2429
Rp2430
(dp2431
g1099
g1056
sg1101
(lp2432
g1046
asg323
g1054
sbsS'IwMemBucketHelpers.h'
p2433
g297
(g1095
g299
Ntp2434
Rp2435
(dp2436
g1099
g929
sg1101
g1111
sg323
g976
sbsS's3eHash.h'
p2437
g297
(g1095
g299
Ntp2438
Rp2439
(dp2440
g1099
g1100
sg1101
g1147
sg323
S'c:/marmalade/7.4/s3e/h/s3eHash.h'
p2441
sbsS'new.h'
p2442
g297
(g1095
g299
Ntp2443
Rp2444
(dp2445
g1099
g1100
sg1101
g1102
sg323
S'c:/marmalade/7.4/s3e/h/std/c++/new.h'
p2446
sbsS'math.h'
p2447
g297
(g1095
g299
Ntp2448
Rp2449
(dp2450
g1099
g1100
sg1101
g1125
sg323
S'c:/marmalade/7.4/s3e/h/std/math.h'
p2451
sbsS's3eClipboard.h'
p2452
g297
(g1095
g299
Ntp2453
Rp2454
(dp2455
g1099
g1100
sg1101
g1147
sg323
S'c:/marmalade/7.4/s3e/h/s3eClipboard.h'
p2456
sbsS'streambuf'
p2457
g297
(g1095
g299
Ntp2458
Rp2459
(dp2460
g1099
g1100
sg1101
g1102
sg323
S'c:/marmalade/7.4/s3e/h/std/c++/streambuf'
p2461
sbsS's3eDebug.h'
p2462
g297
(g1095
g299
Ntp2463
Rp2464
(dp2465
g1099
g1100
sg1101
g1147
sg323
S'c:/marmalade/7.4/s3e/h/s3eDebug.h'
p2466
sbsS's3eEMail.h'
p2467
g297
(g1095
g299
Ntp2468
Rp2469
(dp2470
g1099
g1100
sg1101
g1263
sg323
S'c:/marmalade/7.4/s3e/h/ext/s3eEMail.h'
p2471
sbsS'uio.h'
p2472
g297
(g1095
g299
Ntp2473
Rp2474
(dp2475
g1099
g1100
sg1101
g1289
sg323
S'c:/marmalade/7.4/s3e/h/std/sys/uio.h'
p2476
sbsS'glext.h'
p2477
g297
(g1095
g299
Ntp2478
Rp2479
(dp2480
g1099
g1100
sg1101
g1651
sg323
S'c:/marmalade/7.4/s3e/h/GLES/glext.h'
p2481
sbsS's3eVideo.h'
p2482
g297
(g1095
g299
Ntp2483
Rp2484
(dp2485
g1099
g1100
sg1101
g1147
sg323
S'c:/marmalade/7.4/s3e/h/s3eVideo.h'
p2486
sbsS'pngconf.h'
p2487
g297
(g1095
g299
Ntp2488
Rp2489
(dp2490
g1099
g1051
sg1101
g1646
sg323
g1052
sbsS'IwUncopyable.h'
p2491
g297
(g1095
g299
Ntp2492
Rp2493
(dp2494
g1099
g929
sg1101
g1111
sg323
g978
sbsS'gl3.h'
p2495
g297
(g1095
g299
Ntp2496
Rp2497
(dp2498
g1099
g1100
sg1101
g1604
sg323
S'c:/marmalade/7.4/s3e/h/GLES3/gl3.h'
p2499
sbsS'typeinfo.h'
p2500
g297
(g1095
g299
Ntp2501
Rp2502
(dp2503
g1099
g1100
sg1101
g1102
sg323
S'c:/marmalade/7.4/s3e/h/std/c++/typeinfo.h'
p2504
sbsS'temp_defines_release.h'
p2505
g297
(g1095
g299
Ntp2506
Rp2507
(dp2508
g1099
(lp2509
sg1101
(lp2510
g1570
asg323
S'e:/Documents/Michiel/Programmeren/Marmalade/MVSStage4/build_mvsstage4_vc12x/temp_defines_release.h'
p2511
sbsS'IwMenu.h'
p2512
g297
(g1095
g299
Ntp2513
Rp2514
(dp2515
g1099
g929
sg1101
g1111
sg323
g930
sbssS'juice_build_type'
p2516
g4
sS'tests'
p2517
(lp2518
sS'project_name'
p2519
g305
sS'root_file'
p2520
g121
sS'current_root'
p2521
S'e:/Documents/Michiel/Programmeren/Marmalade/MVSStage4'
p2522
sS'dependencies'
p2523
(lp2524
sS'include_paths'
p2525
(lp2526
S'e:/Documents/Michiel/Programmeren/Marmalade/MVSStage4/include'
p2527
aS'c:/marmalade/7.4/modules/iwutil/h'
p2528
aS'c:/marmalade/7.4/modules/third_party/libjpeg/h'
p2529
aS'c:/marmalade/7.4/modules/third_party/zlib/h'
p2530
aS'c:/marmalade/7.4/modules/third_party/libpng/h'
p2531
aS'c:/marmalade/7.4/s3e/h'
p2532
aS'c:/marmalade/7.4/s3e/h/ext'
p2533
aS'c:/marmalade/7.4/s3e/h/std'
p2534
aS'c:/marmalade/7.4/s3e/h/std/c++'
p2535
aS'c:/marmalade/7.4/s3e/h/ext_legacy'
p2536
aS'c:/marmalade/7.4/s3e/h/legacy'
p2537
asS'weak_frameworks'
p2538
(lp2539
sS'extprojects'
p2540
(dp2541
sg467
(dp2542
g461
(lp2543
(g79
S'.'
p2544
I0
tp2545
assS'macro_types'
p2546
(dp2547
g432
I1
sg433
I0
sg434
I0
sg435
I0
sg436
I0
sg437
I0
sg438
I0
sg439
I1
sg440
I0
sg441
I0
sg443
I0
sg444
I0
sg445
I0
sg447
I01
sg448
I1
sg449
I0
sg450
I0
ssS'commands'
p2548
(lp2549
sg469
(g916
S'VC12X'
p2550
S'X86ARM'
p2551
tp2552
sS'build_libs'
p2553
(dp2554
sg471
g0
sS'frameworks'
p2555
(lp2556
sS'environ'
p2557
(dp2558
sS'target_name_debug'
p2559
g305
sS'builders'
p2560
(dp2561
g461
(dp2562
S'.S'
p2563
(dp2564
S'rvct'
p2565
(lp2566
S'.obj'
p2567
aS'echo ARM Assembling(RVCT) ${SOURCE}...'
p2568
aS'c:/marmalade/7.4/s3e\\rvct\\bin\\armasm -o ${TARGET} ${SOURCE}'
p2569
asg387
(lp2570
g2567
aS'echo ARM Assembling(GCC) ${SOURCE}...'
p2571
aS'c:/marmalade/7.4/s3e\\gcc\\bin\\arm-none-eabi-gcc -c -o ${TARGET} ${SOURCE}'
p2572
asS'ppu'
p2573
(lp2574
S'.a'
p2575
aS'echo PPU Assembling(SNC) ${SOURCE}...'
p2576
aS'c:/marmalade/7.4/s3e\\rvct\\bin\\armasm -o ${TARGET} ${SOURCE}'
p2577
assS'.s'
p2578
g2564
sssS'extproject_names'
p2579
(lp2580
sbtp2581
.