((dp0
S'arm_dbg_args'
p1
S'-via:"e:\\Documents\\Michiel\\Programmeren\\Marmalade\\MVSStage4\\build_mvsstage4_vc12x\\MVSStage4_vc12x_arm_debug.via" -qemu'
p2
sS'game-icf'
p3
S''
p4
sS'dist'
p5
NsS'csproj'
p6
g4
sS'module_path_append'
p7
NsS'global_path'
p8
S'e:\\documents\\michiel\\programmeren\\marmalade'
p9
sS'system_path'
p10
S'c:\\marmalade\\7.4\\s3e\\makefile_builder'
p11
sS'android_x86_dbg_args'
p12
S'../../tools/DeployTool/DeployTool.exe --dir "e:\\Documents\\Michiel\\Programmeren\\Marmalade\\MVSStage4\\build_mvsstage4_vc12x"'
p13
sS'no-emit'
p14
NsS'arm-float-abi'
p15
g4
sS'arm_rel_rtsm_args'
p16
S'-via:"e:\\Documents\\Michiel\\Programmeren\\Marmalade\\MVSStage4\\build_mvsstage4_vc12x\\MVSStage4_vc12x_arm_release.via" -qemu'
p17
sS'amd64'
p18
NsS'line-width'
p19
I80
sS'gcc_dbg_args'
p20
S'-via:"e:\\Documents\\Michiel\\Programmeren\\Marmalade\\MVSStage4\\build_mvsstage4_vc12x\\MVSStage4_vc12x_gcc_debug.via" -qemu'
p21
sS'android-x86'
p22
NsS'x86_dbg_exe'
p23
S'c:/marmalade/7.4/s3e\\win32\\s3e_simulator_debug.exe'
p24
sS'disable-runtime-checks'
p25
NsS'release'
p26
NsS'no-make'
p27
NsS'xcode-x86-build-settings'
p28
g4
sS'optimise-size'
p29
NsS'output-name-debug'
p30
g4
sS'arm-fpu'
p31
g4
sS'proj_name'
p32
S'MVSStage4_vc12x'
p33
sS'enable-stdinc'
p34
NsS'compiler'
p35
g4
sS'execute'
p36
NsS'compile-static'
p37
NsS'msvc-project'
p38
NsS'buildenv'
p39
S'VC12X'
p40
sS'quick'
p41
NsS'module_path'
p42
(lp43
S'C:/Marmalade/7.4/examples/GameTutorial/CPP/modules'
p44
asS'use-release-std-libs'
p45
NsS'using_perforce'
p46
I00
sS'tizen-x86'
p47
NsS'mips-s3e'
p48
NsS's3e-api-lib-name'
p49
S's3e_api_iwgl'
p50
sS'ios-no-pic'
p51
NsS'shared-arm-lib'
p52
NsS'arm-cpu'
p53
g4
sS'compile-thumb'
p54
NsS'no-ide'
p55
I01
sS'msvc-version'
p56
S'6.0'
p57
sS'arm'
p58
NsS'builddir'
p59
g4
sS'compile-debug-as-release'
p60
I0
sS'arm-arch'
p61
g4
sS'brief'
p62
NsS'dll'
p63
NsS'buildenv-toolset'
p64
g4
sS'version'
p65
NsS'ccache'
p66
I0
sS'offline'
p67
NsS'ios-version'
p68
g4
sS'hub_data'
p69
g4
sS'fake_vc_call'
p70
NsS'jobs'
p71
I0
sS'linkflags'
p72
NsS'debug'
p73
I01
sS'xcode-build-order'
p74
g4
sS'gcc_rel_rtsm_args'
p75
S'-via:"e:\\Documents\\Michiel\\Programmeren\\Marmalade\\MVSStage4\\build_mvsstage4_vc12x\\MVSStage4_vc12x_gcc_release.via" -qemu'
p76
sS'done_defaults'
p77
I1
sS'path'
p78
NsS's3e-data-dir'
p79
S'e:/Documents/Michiel/Programmeren/Marmalade/MVSStage4\\data'
p80
sS'enable-exceptions'
p81
NsS'osx-dll'
p82
NsS'extension'
p83
g4
sS'no-vc6'
p84
NsS'non-interactive'
p85
NsS'win32-console'
p86
NsS'dist-format'
p87
g4
sS's3e-force-arch'
p88
NsS'dump_defines'
p89
NsS'use_prebuilt'
p90
NsS'gcc-version'
p91
g4
sS'x86_dbg_args'
p92
S'-via:"e:\\Documents\\Michiel\\Programmeren\\Marmalade\\MVSStage4\\build_mvsstage4_vc12x\\MVSStage4_vc12x_debug.via"'
p93
sS'tizen_x86_dbg_args'
p94
g13
sS'arm-debugger'
p95
g4
sS'use_temp_extension'
p96
NsS'verbose'
p97
I0
sS'log'
p98
NsS'no-strip'
p99
NsS'rebuild'
p100
NsS'win32-simulator-dll'
p101
NsS'strict'
p102
NsS'mips_dbg_args'
p103
g13
sS'enable-global-path'
p104
NsS'cflags'
p105
NsS'dist-dir'
p106
g4
sS'xcode-arm-build-settings'
p107
g4
sS'jflags'
p108
NsS'csprojSDKRefs'
p109
g4
sS'tizen_x86_rel_exe'
p110
S'c:\\marmalade\\7.4\\s3e\\makefile_builder\\tool_launcher.exe'
p111
sS'test-assets'
p112
g4
sS'distcc'
p113
NsS'external-compiler'
p114
NsS'no-distcc'
p115
NsS'preinclude'
p116
NsS'using_sdk'
p117
I01
sS'nologo'
p118
NsS'warn-level'
p119
I2
sS'mips_dbg_exe'
p120
g111
sS'mkb_in'
p121
S'e:/Documents/Michiel/Programmeren/Marmalade/MVSStage4/MVSStage4.mkb'
p122
sS'tizen_x86_dbg_exe'
p123
g111
sS'arm_dbg_exe'
p124
S'c:/marmalade/7.4/s3e\\bin\\armdebug.exe'
p125
sS'csprojDLLRef'
p126
NsS'tizen_x86_rel_args'
p127
g13
sS'android_x86_dbg_exe'
p128
g111
sS'test-config'
p129
g4
sS'list-targets'
p130
NsS'arm_rel_exe'
p131
g111
sS'arm_rel_args'
p132
g13
sS'makedeps'
p133
NsS'android_x86_rel_exe'
p134
g111
sS'default-buildenv'
p135
S'VC12X'
p136
sS'x86_rel_exe'
p137
g24
sS'preprocess-java'
p138
NsS'mips_rel_args'
p139
g13
sS'defines'
p140
NsS'lib'
p141
NsS'global_argv'
p142
(lp143
S'C:\\Marmalade\\7.4\\s3e\\makefile_builder\\mkb.py'
p144
aS'E:/Documents/Michiel/Programmeren/Marmalade/MVSStage4/MVSStage4.mkb'
p145
aS'--buildenv=VC12X'
p146
aS'--debug'
p147
aS'--x86'
p148
aS'--no-ide'
p149
aS'--make'
p150
asS'make'
p151
I01
sS'optimise-speed'
p152
NsS'internal'
p153
NsS'rvct-version'
p154
g4
sS'deploy-only'
p155
NsS'x86'
p156
I01
sS'deploy'
p157
g4
sS'x86_run_exe'
p158
S'c:/marmalade/7.4/s3e\\win32\\s3e_console.exe'
p159
sS'x86_rel_args'
p160
S'-via:"e:\\Documents\\Michiel\\Programmeren\\Marmalade\\MVSStage4\\build_mvsstage4_vc12x\\MVSStage4_vc12x_release.via"'
p161
sS'gcc_rel_args'
p162
g13
sS'mips'
p163
NsS'xcode-build-settings'
p164
g4
sS'incredibuild'
p165
NsS'strict-compile'
p166
NsS'use-auto-subdirs'
p167
NsS'mips_rel_exe'
p168
g111
sS'android_x86_rel_args'
p169
g13
sS'app-icf'
p170
g4
sS'deployargs'
p171
NsS'iosnativedebug'
p172
NsS'mkf_in'
p173
(lp174
S'c:\\marmalade\\7.4\\modules\\iw2d\\iw2d.mkf'
p175
aS'c:\\marmalade\\7.4\\modules\\iwgx\\iwgx.mkf'
p176
aS'c:\\marmalade\\7.4\\modules\\iwgl\\iwgl.mkf'
p177
aS'c:\\marmalade\\7.4\\modules\\iwutil\\iwutil.mkf'
p178
aS'c:\\marmalade\\7.4\\modules\\third_party\\libjpeg\\libjpeg.mkf'
p179
aS'c:\\marmalade\\7.4\\modules\\third_party\\libpng\\libpng.mkf'
p180
aS'c:\\marmalade\\7.4\\modules\\third_party\\zlib\\zlib.mkf'
p181
aS'c:\\marmalade\\7.4\\modules\\iwgeom\\iwgeom.mkf'
p182
aS'c:\\marmalade\\7.4\\modules\\iwresmanager\\iwresmanager.mkf'
p183
aS'c:\\marmalade\\7.4\\extensions\\pvrtextool\\pvrtextool.mkf'
p184
aS'c:\\marmalade\\7.4\\modules\\iwgxfont\\iwgxfont.mkf'
p185
aS'c:\\marmalade\\7.4\\modules\\third_party\\tiniconv\\tiniconv.mkf'
p186
aS'c:\\marmalade\\7.4\\modules\\iw2dscenegraph\\iw2dscenegraph.mkf'
p187
aS'c:\\marmalade\\7.4\\modules\\iw2dscenegraphcore\\iw2dscenegraphcore.mkf'
p188
aS'c:\\marmalade\\7.4\\modules\\iwtween\\iwtween.mkf'
p189
aS'c:\\marmalade\\7.4\\examples\\gametutorial\\cpp\\modules\\soundengine\\soundengine.mkf'
p190
aS'c:\\marmalade\\7.4\\examples\\marmaladeexampleresources\\marmaladeexampleresources.mkf'
p191
asS'strict-mkb'
p192
NsS'executeargs'
p193
NsS'clean'
p194
NsS'no-asm'
p195
NsS'output-name'
p196
g4
sS'no-modules'
p197
NsS'find_define'
p198
g4
s(dp199
S'c:\\marmalade\\7.4\\s3e\\makefile_builder\\plugins\\Emitter.pyc'
p200
F1411758008.0
sS'c:\\marmalade\\7.4\\s3e\\makefile_builder\\templates\\ws8_ext_sln.pyc'
p201
F1411758010.0
sS'c:\\marmalade\\7.4\\s3e\\makefile_builder\\templates\\MainWindow.xib'
p202
F1411756764.0
sS'c:\\marmalade\\7.4\\s3e\\makefile_builder\\templates\\template.suo'
p203
F1411756764.0
sS'c:\\marmalade\\7.4\\s3e\\makefile_builder\\plugins\\xcode4_schememanagement.py'
p204
F1411756764.0
sS'c:\\marmalade\\7.4\\s3e\\makefile_builder\\templates\\ws81_sln.pyc'
p205
F1411758010.0
sS'c:\\marmalade\\7.4\\s3e\\makefile_builder\\templates\\win8_ext_csproj.pyc'
p206
F1411758010.0
sS'c:\\marmalade\\7.4\\s3e\\makefile_builder\\mkb_option.pyc'
p207
F1411758008.0
sS'c:\\marmalade\\7.4\\s3e\\makefile_builder\\plugins\\s3e_xcode.py'
p208
F1411756764.0
sS'c:\\marmalade\\7.4\\s3e\\makefile_builder\\plugins\\s3e_scons.pyc'
p209
F1411758008.0
sS'c:\\marmalade\\7.4\\s3e\\makefile_builder\\templates\\win8_vcxproj.pyc'
p210
F1411758010.0
sS'c:\\marmalade\\7.4\\s3e\\makefile_builder\\plugins\\null.pyc'
p211
F1411758008.0
sS'c:\\marmalade\\7.4\\s3e\\makefile_builder\\templates\\vc8_user.pyc'
p212
F1411758010.0
sS'c:\\marmalade\\7.4\\s3e\\makefile_builder\\templates\\wp81_ext_sln.pyc'
p213
F1411758010.0
sS'c:\\marmalade\\7.4\\s3e\\makefile_builder\\templates\\scons.pyc'
p214
F1411758010.0
sS'c:\\marmalade\\7.4\\s3e\\makefile_builder\\templates\\wp8_ext_csproj.pyc'
p215
F1411758010.0
sS'c:\\marmalade\\7.4\\s3e\\makefile_builder\\templates\\xcode_pbxuser.py'
p216
F1411756766.0
sS'c:\\marmalade\\7.4\\s3e\\makefile_builder\\plugins\\s3e_qmake.py'
p217
F1411756764.0
sS'c:\\marmalade\\7.4\\s3e\\makefile_builder\\plugins\\iphone.pyc'
p218
F1411758010.0
sS'c:\\marmalade\\7.4\\s3e\\makefile_builder\\templates\\ws81_ext_csproj.pyc'
p219
F1411758010.0
sS'c:\\marmalade\\7.4\\s3e\\makefile_builder\\templates\\vc6_opt.pyc'
p220
F1411758010.0
sS'c:\\marmalade\\7.4\\s3e\\makefile_builder\\plugins\\s3e_win8.pyc'
p221
F1411758010.0
sS'c:\\marmalade\\7.4\\s3e\\makefile_builder\\mkb_main.pyc'
p222
F1411758008.0
sS'c:\\marmalade\\7.4\\s3e\\makefile_builder\\templates\\wp8_csproj.pyc'
p223
F1411758010.0
sS'c:\\marmalade\\7.4\\s3e\\makefile_builder\\templates\\win32_vcproj.pyc'
p224
F1411758010.0
sS'c:\\marmalade\\7.4\\s3e\\makefile_builder\\templates\\win8_sln.pyc'
p225
F1411758010.0
sS'c:\\marmalade\\7.4\\s3e\\makefile_builder\\mkb_launcher.exe'
p226
F1411757118.0
sS'c:\\marmalade\\7.4\\s3e\\makefile_builder\\plugins\\osx_xcode.pyc'
p227
F1411758010.0
sS'c:\\marmalade\\7.4\\s3e\\makefile_builder\\plugins'
p228
F1413657746.5508685
sS'c:\\marmalade\\7.4\\s3e\\makefile_builder\\templates\\wp8_csproj_user.pyc'
p229
F1411758010.0
sS'c:\\marmalade\\7.4\\s3e\\makefile_builder\\plugins\\win32_vc6.pyc'
p230
F1411758010.0
sS'c:\\marmalade\\7.4\\s3e\\makefile_builder\\plugins\\s3e_vc6.pyc'
p231
F1411758008.0
sS'c:\\marmalade\\7.4\\s3e\\makefile_builder\\templates\\vc10_user.pyc'
p232
F1411758010.0
sS'c:\\marmalade\\7.4\\s3e\\makefile_builder\\docs\\deprecated.defines.txt'
p233
F1411756764.0
sS'c:\\marmalade\\7.4\\s3e\\makefile_builder\\templates\\wp81_csproj_user.pyc'
p234
F1411758010.0
sS'c:\\marmalade\\7.4\\s3e\\makefile_builder\\templates\\ws81_ext_sln.pyc'
p235
F1411758010.0
sS'c:\\marmalade\\7.4\\s3e\\makefile_builder\\templates\\make.py'
p236
F1411756764.0
sS'c:\\marmalade\\7.4\\s3e\\makefile_builder\\plugins\\wp81_wp81.pyc'
p237
F1411758010.0
sS'c:\\marmalade\\7.4\\s3e\\makefile_builder\\plugins\\s3e_qmake.pyc'
p238
F1411803920.1701696
sS'c:\\marmalade\\7.4\\s3e\\makefile_builder\\templates\\mips_linker_script'
p239
F1411756764.0
sS'c:\\marmalade\\7.4\\s3e\\makefile_builder\\plugins\\deploy.pyc'
p240
F1411758008.0
sS'c:\\marmalade\\7.4\\s3e\\makefile_builder\\plugins\\ws81_ws81.pyc'
p241
F1411758010.0
sS'c:\\marmalade\\7.4\\s3e\\makefile_builder\\mkb.py'
p242
F1411756764.0
sS'c:\\marmalade\\7.4\\s3e\\makefile_builder\\docs\\options.txt'
p243
F1411756764.0
sS'c:\\marmalade\\7.4\\s3e\\makefile_builder\\mkb_parser.pyc'
p244
F1411758008.0
sS'c:\\marmalade\\7.4\\s3e\\makefile_builder\\templates\\qmake_user.py'
p245
F1411756764.0
sS'c:\\marmalade\\7.4\\s3e\\makefile_builder\\docs\\mkb.defines.txt'
p246
F1411756764.0
sS'c:\\marmalade\\7.4\\s3e\\makefile_builder\\deployment.pyc'
p247
F1411758008.0
sS'c:\\marmalade\\7.4\\s3e\\makefile_builder\\plugins\\wp8_wp8.pyc'
p248
F1411758010.0
sS'c:\\marmalade\\7.4\\s3e\\makefile_builder\\plugins\\linux_scons.pyc'
p249
F1411758010.0
sS'c:\\marmalade\\7.4\\s3e\\makefile_builder\\plugins\\s3e_web.pyc'
p250
F1411758008.0
sS'c:\\marmalade\\7.4\\s3e\\makefile_builder\\plugins\\S3EEmitter.pyc'
p251
F1411758008.0
sS'c:\\marmalade\\7.4\\s3e\\makefile_builder\\plugins\\Win8Emitter.pyc'
p252
F1411758010.0
sS'c:\\marmalade\\7.4\\s3e\\makefile_builder\\templates\\xcode4_arm.xcscheme'
p253
F1411756766.0
sS'c:\\marmalade\\7.4\\s3e\\makefile_builder\\plugins\\vc6_utils.pyc'
p254
F1411758010.0
sS'c:\\marmalade\\7.4\\s3e\\makefile_builder\\templates\\wp8_vcxproj.pyc'
p255
F1411758010.0
sS'c:\\marmalade\\7.4\\s3e\\makefile_builder\\templates\\xcode4.xcscheme'
p256
F1411756766.0
sS'c:\\marmalade\\7.4\\s3e\\makefile_builder\\plugins\\MakeEmitter.pyc'
p257
F1411758008.0
sS'c:\\marmalade\\7.4\\s3e\\makefile_builder\\plugins\\java.pyc'
p258
F1411758010.0
sS'c:\\marmalade\\7.4\\s3e\\makefile_builder\\plugins\\XcodeEmitter.pyc'
p259
F1411803919.9116752
sS'c:\\marmalade\\7.4\\s3e\\makefile_builder\\plugins\\XcodeEmitter.py'
p260
F1411756764.0
sS'c:\\marmalade\\7.4\\s3e\\makefile_builder\\mkb_globals.pyc'
p261
F1411758008.0
sS'c:\\marmalade\\7.4\\s3e\\makefile_builder\\tool_launcher.exe'
p262
F1411757118.0
sS'c:\\marmalade\\7.4\\s3e\\makefile_builder\\mkb_util.pyc'
p263
F1411758008.0
sS'c:\\marmalade\\7.4\\s3e\\makefile_builder\\plugins\\xcode4_schememanagement.pyc'
p264
F1411803919.9427035
sS'c:\\marmalade\\7.4\\s3e\\makefile_builder\\templates\\ws8_sln.pyc'
p265
F1411758010.0
sS'c:\\marmalade\\7.4\\s3e\\makefile_builder\\templates\\win32_sln.pyc'
p266
F1411758010.0
sS'c:\\marmalade\\7.4\\s3e\\makefile_builder\\templates\\wp81_ext_csproj.pyc'
p267
F1411758010.0
sS'c:\\marmalade\\7.4\\s3e\\makefile_builder\\plugins\\s3e_wp81.pyc'
p268
F1411758010.0
sS'c:\\marmalade\\7.4\\s3e\\makefile_builder\\plugins\\s3e_wp8.pyc'
p269
F1411758010.0
sS'c:\\marmalade\\7.4\\s3e\\makefile_builder\\templates\\qmake.py'
p270
F1411756764.0
sS'c:\\marmalade\\7.4\\s3e\\makefile_builder\\templates\\gdb_start.txt'
p271
F1411756764.0
sS'c:\\marmalade\\7.4\\s3e\\makefile_builder\\templates'
p272
F1413657746.9110093
sS'c:\\marmalade\\7.4\\s3e\\makefile_builder\\templates\\ws8_ext_csproj.pyc'
p273
F1411758010.0
sS'c:\\marmalade\\7.4\\s3e\\makefile_builder\\templates\\win8_csproj_user.pyc'
p274
F1411758010.0
sS'c:\\marmalade\\7.4\\s3e\\makefile_builder\\templates\\vc7_suo.pyc'
p275
F1411758010.0
sS'c:\\marmalade\\7.4\\s3e\\makefile_builder\\plugins\\VisualStudioEmitter.pyc'
p276
F1411758010.0
sS'c:\\marmalade\\7.4\\s3e\\makefile_builder\\templates\\linker_script'
p277
F1411756764.0
sS'c:\\marmalade\\7.4\\s3e\\makefile_builder\\docs\\deprecated.options.txt'
p278
F1411756764.0
sS'c:\\marmalade\\7.4\\s3e\\makefile_builder\\plugins\\s3e_xcode.pyc'
p279
F1411803920.2749066
sS'c:\\marmalade\\7.4\\s3e\\makefile_builder\\plugins\\s3e_ws8.pyc'
p280
F1411758010.0
sS'c:\\marmalade\\7.4\\s3e\\makefile_builder\\templates\\xcode4_DeployTool.xcscheme'
p281
F1411756766.0
sS'c:\\marmalade\\7.4\\s3e\\makefile_builder\\templates\\ws8_csproj_user.pyc'
p282
F1411758010.0
sS'c:\\marmalade\\7.4\\s3e\\makefile_builder\\plugins\\osx_scons.pyc'
p283
F1411758010.0
sS'c:\\marmalade\\7.4\\s3e\\makefile_builder\\templates\\ws81_csproj.pyc'
p284
F1411758010.0
sS'c:\\marmalade\\7.4\\s3e\\makefile_builder\\templates\\wp8_sln.pyc'
p285
F1411758010.0
sS'c:\\marmalade\\7.4\\s3e\\makefile_builder\\docs'
p286
F1413657747.0451703
sS'c:\\marmalade\\7.4\\s3e\\makefile_builder\\plugins\\ws8_ws8.pyc'
p287
F1411758010.0
sS'c:\\marmalade\\7.4\\s3e\\makefile_builder\\docs\\deployment_options.txt'
p288
F1411756764.0
sS'c:\\marmalade\\7.4\\s3e\\makefile_builder\\templates\\win32_vcxproj_filters.pyc'
p289
F1411758010.0
sS'c:\\marmalade\\7.4\\s3e\\makefile_builder\\templates\\win32_dsw.pyc'
p290
F1411758010.0
sS'c:\\marmalade\\7.4\\s3e\\makefile_builder\\plugins\\s3e_ws81.pyc'
p291
F1411758010.0
sS'c:\\marmalade\\7.4\\s3e\\makefile_builder\\plugins\\SConsEmitter.pyc'
p292
F1411758010.0
sS'c:\\marmalade\\7.4\\s3e\\makefile_builder\\templates\\wp81_vcxproj.pyc'
p293
F1411758010.0
sS'c:\\marmalade\\7.4\\s3e\\makefile_builder\\plugins\\win8_utils.pyc'
p294
F1411758010.0
sS'c:\\marmalade\\7.4\\s3e\\makefile_builder\\templates\\template.opt'
p295
F1411756764.0
sS'c:\\marmalade\\7.4\\s3e\\makefile_builder\\plugins\\vc7_utils.pyc'
p296
F1411758010.0
sS'c:\\marmalade\\7.4\\s3e\\makefile_builder\\templates\\win32_dsp.pyc'
p297
F1411758010.0
sS'c:\\marmalade\\7.4\\s3e\\makefile_builder\\plugins\\s3e_make.pyc'
p298
F1411758008.0
sS'c:\\marmalade\\7.4\\s3e\\makefile_builder\\templates\\rvct_linker_script'
p299
F1411756764.0
sS'c:\\marmalade\\7.4\\s3e\\makefile_builder\\templates\\win8_csproj.pyc'
p300
F1411758010.0
sS'c:\\marmalade\\7.4\\s3e\\makefile_builder\\templates\\xcode.py'
p301
F1411756766.0
sS'c:\\marmalade\\7.4\\s3e\\makefile_builder\\templates\\ws8_vcxproj.pyc'
p302
F1411758010.0
sS'c:\\marmalade\\7.4\\s3e\\makefile_builder\\templates\\wp81_csproj.pyc'
p303
F1411758010.0
sS'c:\\marmalade\\7.4\\s3e\\makefile_builder\\mkb_upstream.pyc'
p304
F1411758008.0
sS'c:\\marmalade\\7.4\\s3e\\makefile_builder\\templates\\win32_vcxproj.pyc'
p305
F1411758010.0
sS'c:\\marmalade\\7.4\\s3e\\makefile_builder\\templates\\ws8_csproj.pyc'
p306
F1411758010.0
sS'c:\\marmalade\\7.4\\s3e\\makefile_builder\\docs\\parse_options.pyc'
p307
F1411758012.0
sS'c:\\marmalade\\7.4\\s3e\\makefile_builder\\templates\\Info.plist'
p308
F1411756764.0
sS'c:\\marmalade\\7.4\\s3e\\makefile_builder\\templates\\wp81_sln.pyc'
p309
F1411758010.0
sS'c:\\marmalade\\7.4\\s3e\\makefile_builder\\templates\\ws81_csproj_user.pyc'
p310
F1411758010.0
sS'c:\\marmalade\\7.4\\s3e\\makefile_builder\\templates\\ws81_vcxproj.pyc'
p311
F1411758010.0
sccopy_reg
_reconstructor
p312
(cmkb_main
MkbFile
p313
c__builtin__
object
p314
Ntp315
Rp316
(dp317
g5
(lp318
sS'target_name'
p319
S'MVSStage4'
p320
sS'current_file'
p321
g122
sS'package_path'
p322
(lp323
sS'post_build'
p324
(lp325
(lp326
S'c:/marmalade/7.4/s3e/tools'
p327
aS'C:\\Marmalade\\7.4\\s3e\\python\\python.exe .\\process_map.py "$(TargetPath)"'
p328
aa(S'c:\\marmalade\\7.4\\s3e\\bin'
p329
S'"s3e_plink" -l "$(TargetPath)" '
p330
g156
tp331
asS'librarys'
p332
(lp333
g312
(cmkb_main
Library
p334
g314
Ntp335
Rp336
(dp337
S'name'
p338
S'vc6_compat.lib'
p339
sS'expand_name'
p340
I00
sS'include_spec_rvct_objs'
p341
(lp342
sS'include_all_objs'
p343
I00
sS'share_arm'
p344
I00
sS'arch'
p345
S'x86'
p346
sS'nodebug'
p347
I00
sg35
Nsbag312
(g334
g314
Ntp348
Rp349
(dp350
g338
S'iw2d'
p351
sg340
I01
sg341
(lp352
sg343
Nsg344
Nsg345
Nsg347
I00
sg35
Nsbag312
(g334
g314
Ntp353
Rp354
(dp355
g338
S'ATI_Compress_MT_VC7.lib'
p356
sg340
I00
sg341
g352
sg343
Nsg344
Nsg345
S'x86'
p357
sg347
I00
sg35
Nsbag312
(g334
g314
Ntp358
Rp359
(dp360
g338
S'iwgx'
p361
sg340
I01
sg341
g352
sg343
Nsg344
Nsg345
Nsg347
I00
sg35
Nsbag312
(g334
g314
Ntp362
Rp363
(dp364
g338
S'iwgl'
p365
sg340
I01
sg341
g352
sg343
Nsg344
Nsg345
Nsg347
I00
sg35
Nsbag312
(g334
g314
Ntp366
Rp367
(dp368
g338
S'iwutil'
p369
sg340
I01
sg341
g352
sg343
Nsg344
Nsg345
Nsg347
I00
sg35
Nsbag312
(g334
g314
Ntp370
Rp371
(dp372
g338
S'jpeg'
p373
sg340
I01
sg341
g352
sg343
Nsg344
Nsg345
Nsg347
I00
sg35
Nsbag312
(g334
g314
Ntp374
Rp375
(dp376
g338
S'z'
p377
sg340
I01
sg341
g352
sg343
Nsg344
Nsg345
Nsg347
I00
sg35
Nsbag312
(g334
g314
Ntp378
Rp379
(dp380
g338
S'png'
p381
sg340
I01
sg341
g352
sg343
Nsg344
Nsg345
Nsg347
I00
sg35
Nsbag312
(g334
g314
Ntp382
Rp383
(dp384
g338
S'iwgeom'
p385
sg340
I01
sg341
g352
sg343
Nsg344
Nsg345
Nsg347
I00
sg35
Nsbag312
(g334
g314
Ntp386
Rp387
(dp388
g338
S'iwresmanager'
p389
sg340
I01
sg341
g352
sg343
Nsg344
Nsg345
Nsg347
I00
sg35
Nsbag312
(g334
g314
Ntp390
Rp391
(dp392
g338
S'iwgxfont'
p393
sg340
I01
sg341
g352
sg343
Nsg344
Nsg345
Nsg347
I00
sg35
Nsbag312
(g334
g314
Ntp394
Rp395
(dp396
g338
S'tiniconv'
p397
sg340
I01
sg341
g352
sg343
Nsg344
Nsg345
Nsg347
I00
sg35
Nsbag312
(g334
g314
Ntp398
Rp399
(dp400
g338
S's3e_cpp'
p401
sg340
I01
sg341
g342
sg343
I00
sg344
I00
sg345
Nsg347
I00
sg35
Nsbag312
(g334
g314
Ntp402
Rp403
(dp404
g338
S's3e'
p405
sg340
I01
sg341
(lp406
S'iwcrt.o'
p407
asg343
I00
sg344
I00
sg345
Nsg347
I00
sg35
Nsbag312
(g334
g314
Ntp408
Rp409
(dp410
g338
g50
sg340
I01
sg341
g342
sg343
I00
sg344
I00
sg345
S'x86'
p411
sg347
I01
sg35
Nsbag312
(g334
g314
Ntp412
Rp413
(dp414
g338
g50
sg340
I01
sg341
g342
sg343
I00
sg344
I00
sg345
S'!x86'
p415
sg347
I01
sg35
Nsbag312
(g334
g314
Ntp416
Rp417
(dp418
g338
S'stdc++'
p419
sg340
I00
sg341
g342
sg343
I00
sg344
I00
sg345
S'mips'
p420
sg347
I00
sg35
Nsbag312
(g334
g314
Ntp421
Rp422
(dp423
g338
S'c'
p424
sg340
I00
sg341
g342
sg343
I00
sg344
I00
sg345
S'mips'
p425
sg347
I00
sg35
Nsbag312
(g334
g314
Ntp426
Rp427
(dp428
g338
S'm'
p429
sg340
I00
sg341
g342
sg343
I00
sg344
I00
sg345
S'mips'
p430
sg347
I00
sg35
Nsbag312
(g334
g314
Ntp431
Rp432
(dp433
g338
S'gcc'
p434
sg340
I00
sg341
g342
sg343
I00
sg344
I00
sg345
S'mips'
p435
sg347
I00
sg35
Nsbag312
(g334
g314
Ntp436
Rp437
(dp438
g338
S'stdc++'
p439
sg340
I00
sg341
g342
sg343
I00
sg344
I00
sg345
S'gcc_x86_android'
p440
sg347
I00
sg35
Nsbag312
(g334
g314
Ntp441
Rp442
(dp443
g338
g424
sg340
I00
sg341
g342
sg343
I00
sg344
I00
sg345
S'gcc_x86_android'
p444
sg347
I00
sg35
Nsbag312
(g334
g314
Ntp445
Rp446
(dp447
g338
g429
sg340
I00
sg341
g342
sg343
I00
sg344
I00
sg345
S'gcc_x86_android'
p448
sg347
I00
sg35
Nsbag312
(g334
g314
Ntp449
Rp450
(dp451
g338
g434
sg340
I00
sg341
g342
sg343
I00
sg344
I00
sg345
S'gcc_x86_android'
p452
sg347
I00
sg35
NsbasS'library_paths'
p453
(lp454
g312
(cmkb_main
LibraryPath
p455
g314
Ntp456
Rp457
(dp458
S'expand_path'
p459
I01
sg338
S'c:/marmalade/7.4/modules/iw2d'
p460
sbag312
(g455
g314
Ntp461
Rp462
(dp463
g459
I00
sg338
S'c:/marmalade/7.4/modules/iwgx/atitools'
p464
sbag312
(g455
g314
Ntp465
Rp466
(dp467
g459
I01
sg338
S'c:/marmalade/7.4/modules/iwgx'
p468
sbag312
(g455
g314
Ntp469
Rp470
(dp471
g459
I01
sg338
S'c:/marmalade/7.4/modules/iwgl'
p472
sbag312
(g455
g314
Ntp473
Rp474
(dp475
g459
I01
sg338
S'c:/marmalade/7.4/modules/iwutil'
p476
sbag312
(g455
g314
Ntp477
Rp478
(dp479
g459
I01
sg338
S'c:/marmalade/7.4/modules/third_party/libjpeg'
p480
sbag312
(g455
g314
Ntp481
Rp482
(dp483
g459
I01
sg338
S'c:/marmalade/7.4/modules/third_party/zlib'
p484
sbag312
(g455
g314
Ntp485
Rp486
(dp487
g459
I01
sg338
S'c:/marmalade/7.4/modules/third_party/libpng'
p488
sbag312
(g455
g314
Ntp489
Rp490
(dp491
g459
I01
sg338
S'c:/marmalade/7.4/modules/iwgeom'
p492
sbag312
(g455
g314
Ntp493
Rp494
(dp495
g459
I01
sg338
S'c:/marmalade/7.4/modules/iwresmanager'
p496
sbag312
(g455
g314
Ntp497
Rp498
(dp499
g459
I01
sg338
S'c:/marmalade/7.4/modules/iwgxfont'
p500
sbag312
(g455
g314
Ntp501
Rp502
(dp503
g459
I01
sg338
S'c:/marmalade/7.4/modules/third_party/tiniconv'
p504
sbag312
(g455
g314
Ntp505
Rp506
(dp507
g459
I01
sg338
S'c:/marmalade/7.4/s3e'
p508
sbasS'macros'
p509
(dp510
S'IW_USE_CALLSTACK'
p511
NsS'IW_MKF_IWGEOM'
p512
NsS'I3D_PLATFORM_S3E'
p513
NsS'IW_TRACE_CHANNEL_PVRTEXTOOL_VERBOSE'
p514
S'2'
p515
sS'IW_MKF_LIBJPEG'
p516
NsS'I3D_OS_S3E'
p517
NsS'IW_MKF_PVRTEXTOOL'
p518
NsS'IW_MKF_TINICONV'
p519
NsS'IW_APP_VERSION'
p520
S'"1.0"'
p521
sS'__S3E__'
p522
NsS'IW_MKF_IWRESMANAGER'
p523
NsS'IW_MKF_IWUTIL'
p524
NsS'IW_PLATFORM_S3E'
p525
NsS'IW_ASSERTION_CHANNEL_2D'
p526
S'1'
p527
sS'IW_APP_NAME'
p528
S'"MVSStage4"'
p529
sS'IW_MKF_MARMALADEEXAMPLERESOURCES'
p530
NsS'IW_MKF_IWGXFONT'
p531
NsS'IW_MKF_IWTWEEN'
p532
NsS'IW_MKF_ZLIB'
p533
NsS'IW_MKF_IWGX'
p534
NsS'IW_MKF_IW2DSCENEGRAPH'
p535
NsS'IW_MKF_SOUNDENGINE'
p536
NsS'IW_USE_ASSERTIONS'
p537
NsS'_CRT_SECURE_NO_DEPRECATE'
p538
NsS'IW_MKF_IWGL'
p539
NsS'IW_MKF_LIBPNG'
p540
NsS'IW_TRACE_CHANNEL_IW_2DSCENEGRAPH'
p541
g527
sS'IW_DEBUG'
p542
NsS'IW_USE_TRACING'
p543
NsS'IW_ASSERTION_CHANNEL_IW_2DSCENEGRAPH'
p544
g527
sS'IW_TRACE_CHANNEL_PVRTEXTOOL'
p545
g527
sS'IW_SDK'
p546
NsS'S3E_INCLUDE_LEGACY'
p547
NsS'IW_MKF_IW2DSCENEGRAPHCORE'
p548
NsS'IW_MKF_IW2D'
p549
NsS'IW_ASSERTION_CHANNEL_PVRTEXTOOL'
p550
g527
ssS'done_warnings'
p551
(dp552
sS'subprojects'
p553
(dp554
g191
S'../../../MarmaladeExampleResources'
p555
sg181
S'zlib'
p556
sg180
S'libpng'
p557
sg179
S'libjpeg'
p558
sg176
S'iwgx'
p559
sg187
S'iw2dscenegraph'
p560
sg188
S'../iw2dscenegraphcore'
p561
sg182
S'iwgeom'
p562
sg178
S'iwutil'
p563
sg186
S'tiniconv'
p564
sg177
S'iwgl'
p565
sg175
S'iw2d'
p566
sg185
S'iwgxfont'
p567
sg183
S'iwresmanager'
p568
sg190
S'SoundEngine'
p569
sg189
S'iwtween'
p570
sg184
S'PVRTexTool'
p571
ssS'deployments'
p572
(dp573
S'Default'
p574
g312
(cdeployment
Deployment
p575
g314
Ntp576
Rp577
(dp578
S'got_version'
p579
I0
sS'assets'
p580
g574
sS'mkb'
p581
g316
sS'target'
p582
Nsg345
(lp583
sS'options'
p584
(dp585
S'iphone-link-lib'
p586
(lp587
sS'game-icf'
p588
NsS'android-tm'
p589
NsS'winmobile-icon32'
p590
NsS'ws8-logo-image150x150'
p591
NsS'wp81-logo-image150x150'
p592
NsS'ws81-product-version'
p593
NsS'osx-ext-dll'
p594
(lp595
S'c:/marmalade/7.4/extensions/pvrtextool/lib/osx/libPVRTexTool.dylib'
p596
asS'iphone-provisioning-profile'
p597
NsS'ws8-splash-screen-image620x300'
p598
NsS'wp81-extra-pri'
p599
(lp600
sS'ws8-ext-capabilities'
p601
(lp602
sS'android-icon-hdpi'
p603
NsS'brew-icon-large'
p604
NsS'iphone-splash-full-orient'
p605
NsS'wp8-tile-fliptemplate-supports-large'
p606
NsS'iphone-show-status-bar'
p607
NsS'roku-requires-mkv'
p608
NsS'long-caption'
p609
NsS'android-pkgname'
p610
NsS'wp81-publisher-display-name'
p611
NsS'blackberry-permissions-read-device-identifying-information'
p612
NsS'ws81-certificate-end-date'
p613
NsS'psp-dlgcontentid'
p614
NsS'iphone-minimum-ios-version'
p615
NsS'target-folder'
p616
NsS'tizen-dist1-CA-path'
p617
NsS'symbian-icon2-format'
p618
NsS'tizen-author-key'
p619
NsS'firefoxos-icon-128X128'
p620
NsS'iphone-region'
p621
NsS'uiq3-icon3-mask'
p622
NsS'brew-encoding'
p623
NsS'android-x86'
p624
NsS'nds-initialcode'
p625
NsS'iphone-persistent-wifi'
p626
NsS'psp-snd0'
p627
NsS'roku-icon-focus-hd'
p628
NsS'winmobile-install-folder'
p629
NsS'android-external-res'
p630
(lp631
sS'ws8-product-version'
p632
NsS'brew-priviledges'
p633
NsS'iphone-icon-ipad-search'
p634
NsS'iphone-icon-ipad'
p635
NsS'roku-hidden'
p636
NsS'psp-titlename'
p637
NsS'wp81-product-version'
p638
NsS'symbian-icon1-mask'
p639
NsS'psp-parentallevel'
p640
NsS'splashscreen-use-all'
p641
NsS'wp8-author'
p642
NsS'symbian-disable-ecompxl'
p643
NsS'splashscreen-auto-onblack'
p644
NsS'win32-ext-dll'
p645
(lp646
S'c:/marmalade/7.4/extensions/pvrtextool/lib/win32/PVRTexTool.dll'
p647
asS'iphone-development-key'
p648
NsS'winmobile-icon48'
p649
NsS'android-unsigned'
p650
NsS'osx-appstore-category'
p651
NsS'version-revision'
p652
NsS'roku-icon-focus-sd'
p653
NsS'android-keystore'
p654
NsS'winmobile-png90'
p655
NsS'iphone-icon-ipad-high-res'
p656
NsS'iphone-disable-ipad'
p657
NsS'wp8-product-id'
p658
NsS'ws81-splash-screen-background'
p659
NsS'wp8-ext-capabilities'
p660
(lp661
sS'iphone-ipad-only'
p662
NsS'symbian-icon1-mask-black'
p663
NsS'iphone-nosign'
p664
NsS'iphone-bundle-localisations'
p665
NsS'winmobile-png60'
p666
NsS'blackberry-permissions-access-shared'
p667
NsS'blackberry-author'
p668
NsS'android-icon-xxxhdpi'
p669
NsS'olddeploytoolstyle'
p670
NsS'android_icon_gallery'
p671
NsS'wp81-splash-screen-background'
p672
NsS'winmobile-cab-compress'
p673
NsS'iphone-info-plist'
p674
NsS'ws81-ext-managed-dll'
p675
(lp676
sS'playbook-cskpass'
p677
NsS'ws8-distribution-pfx-password'
p678
NsS'symbian-key'
p679
NsS'app-icf'
p680
NsS'blackberry-storepass'
p681
NsS'wp8-tile-fliptemplate-back-title'
p682
NsS'brew-compress-loader'
p683
NsS'win32-pref-windowposy'
p684
NsS'win32-pref-windowposx'
p685
NsS'roku-requires-audiometadata'
p686
NsS'wp8-exclude-low-mem'
p687
NsS'iphone-icon-ipad-search-high-res'
p688
NsS'iphone-link-libdir'
p689
(lp690
sS'wp81-ext-capabilities'
p691
(lp692
sS'blackberry-permissions-read-geolocation'
p693
NsS'ws81-ext-device-capabilities'
p694
(lp695
sS'tizen-signed'
p696
NsS'android-extra-application-manifest'
p697
(lp698
sS'ws8-ext-native-dll'
p699
(lp700
sS'symbian-icon2-mask'
p701
NsS'iphone-backgroundmode-audio'
p702
NsS'webos-memory'
p703
NsS'android-keypass'
p704
NsS'name'
p705
NsS'uiq3-icon2-format'
p706
NsS'roku-splash-screen-sd'
p707
NsS'auto-derbh'
p708
NsS'roku-icon-side-sd'
p709
NsS'android-external-assets'
p710
(lp711
sS'nds-publicsavedatasize'
p712
NsS'splashscreen'
p713
S'c:/marmalade/7.4/examples/marmaladeexampleresources/resources/splashscreens'
p714
sS'brew-mif'
p715
NsS'iphone-icon-settings-high-res'
p716
NsS'android-manifest'
p717
NsS'ws81-splash-screen-image620x300'
p718
NsS'wp81-product-name'
p719
NsS's3e-compression'
p720
NsS'tizen-author-password'
p721
NsS'wp8-tile-fliptemplate-back-content'
p722
NsS'blackberry-extra-descriptor'
p723
(lp724
sS'symbian-icon1'
p725
NsS'symbian-icon2'
p726
NsS'android-extra-styles-file'
p727
NsS'wp81-publisher-id'
p728
NsS'nds-bannertitle-jp'
p729
NsS'wp81-logo-image44x44'
p730
NsS'osx-sign-for-store'
p731
NsS'symbian7-uid'
p732
NsS'wp8-tile-fliptemplate-large-back-content'
p733
NsS'wp81-phone-publisher-id'
p734
NsS'nds-bannertitle-cn'
p735
NsS'iphone-distribution-key'
p736
NsS'android-icon-gallery'
p737
NsS'blackberry-keystore'
p738
NsS'ws8-extra-res'
p739
(lp740
sS'caption'
p741
NsS'android-extra-manifest'
p742
(lp743
sS'wp81-ext-sdk-ref'
p744
(lp745
sS'android-icon-xxhdpi'
p746
NsS'version-minor'
p747
NsS'iphone-link-libdirs'
p748
(lp749
sS'iphone-icon-large'
p750
NsS'symbian-keypwd'
p751
NsS'symbian8-uid'
p752
NsS'symbian-cert-key'
p753
NsS'winmobile-ampd-part-number'
p754
NsS'arch'
p755
NsS'nds-romheadertemplate'
p756
NsS'webos-icon'
p757
NsS'wp81-ext-device-capabilities'
p758
(lp759
sS'psp-dlgprotectdocument'
p760
NsS'ws8-splash-screen-background'
p761
NsS'android-icon-mdpi'
p762
NsS'nds-icon'
p763
NsS'ws8-custom-manifest-fill'
p764
NsS'iphone-development-cert'
p765
NsS'blackberry-phone-icon'
p766
NsS'iphone-enable-4inch-retina'
p767
NsS'ws8-custom-manifest'
p768
NsS'version-major'
p769
NsS'wp8-genre-isgame'
p770
NsS'uiq3-uid'
p771
NsS'iphone-splash-retina-generate'
p772
NsS'tizen-hw-acceleration'
p773
NsS'iphone_bundle_localisations'
p774
NsS'tizen-dist1-key'
p775
NsS'wp81-custom-manifest-fill'
p776
NsS'wp8-custom-manifest'
p777
NsS'nds-bannertitle-ge'
p778
NsS'iphone-sign-for-distribution'
p779
NsS'wp8-tile-fliptemplate-medium-back-image'
p780
NsS'wp8-publisher-id'
p781
NsS'icon'
p782
S'c:/marmalade/7.4/examples/marmaladeexampleresources/resources/icons'
p783
sS'wp8-exclude-wxga'
p784
NsS'wp81-identity-name'
p785
NsS'uiq3-icon2-mask'
p786
NsS'iphone-splashscreen-portrait'
p787
NsS'iphone-icon-high-res'
p788
NsS'ws81-distribution-pfx-password'
p789
NsS'playbook-author'
p790
NsS'android-icon-xhdpi'
p791
NsS'linux-ext-lib'
p792
(lp793
sS'blackberry-permissions-access-internet'
p794
NsS'wp8-exclude-720p'
p795
NsS'lgtv-use-drm'
p796
NsS'symbian-platsecflags'
p797
NsS'ws8-description'
p798
NsS'blackberry-playbook-icon'
p799
NsS'copyright'
p800
NsS'win32-gles-directory'
p801
NsS'version'
p802
NsS'ws81-logo-image150x150'
p803
NsS'osx-signing-identity-app'
p804
NsS'tizen-project-url'
p805
NsS'symbian-icon-svg'
p806
NsS'android-aliasname'
p807
NsS'psp-dlgmanual'
p808
NsS'brew-uid'
p809
NsS'symbian-locationsupport'
p810
NsS'wp81-logo-image50x50'
p811
NsS'ws8-ext-managed-dll'
p812
(lp813
sS'nds-bannertitle-it'
p814
NsS'ws81-custom-manifest-fill'
p815
NsS'ws8-ext-sdk-manifest-part'
p816
(lp817
sS'uiq3-icon1-mask'
p818
NsS'winmobile-icon16'
p819
NsS'ws8-product-name'
p820
NsS'blackberry-cskpass'
p821
NsS'winmobile-start-menu-folder'
p822
NsS'brew-clsid'
p823
NsS'roku-requires-bluetooth'
p824
NsS'ws8-ext-device-capabilities'
p825
(lp826
sS'blackberry-permissions-use-camera'
p827
NsS'ws81-extra-pri'
p828
(lp829
sS'iphone-prerendered-icon'
p830
NsS'iphone-appid'
p831
NsS'ws8-identity-name'
p832
NsS'tizen-dist2-CA-path'
p833
NsS'android-external-jars'
p834
(lp835
sS'winmobile-icon64'
p836
NsS'blackberry-permissions-post-notification'
p837
NsS'winmobile-setup-dll'
p838
NsS'firefoxos-manifest'
p839
NsS'win8-winrt-extra-res'
p840
(lp841
sS'wp81-ext-sdk-manifest-part'
p842
(lp843
sS'symbian9-uid'
p844
NsS'iphone-icon-ipad-ios7'
p845
NsS'winmobile-trace-file'
p846
NsS'roku-splash-color'
p847
NsS'psp-appversion'
p848
NsS'ws8-publisher-id'
p849
NsS'android-supports-gl-texture'
p850
(lp851
sS'winmobile-png45'
p852
NsS'wp81-extra-res'
p853
(lp854
sS'android-storepass'
p855
NsS'osx-signing-identity-inst'
p856
NsS'android-custom-activity'
p857
NsS'psp-discversion'
p858
NsS'wp81-ext-managed-dll'
p859
(lp860
sS'psp-copyright'
p861
NsS'embed-icf'
p862
NsS'tizen-manifest'
p863
NsS'osx-icon'
p864
NsS'webos-appinfo'
p865
NsS'psp-dlghealthwarning'
p866
NsS'webos-appid'
p867
NsS'roku-icon-side-hd'
p868
NsS'iphone-icon-ipad-search-high-res-ios7'
p869
NsS'ws81-ext-sdk-manifest-part'
p870
(lp871
sS'loader_name_prefix'
p872
NsS'nds-titlename'
p873
NsS'ws81-logo-image50x50'
p874
NsS'wp81-custom-manifest'
p875
NsS'osx-entitlements-plist'
p876
NsS'psp-dlgicon0'
p877
NsS'winmobile-nouninstall'
p878
NsS'psp-discid'
p879
NsS'tizen-dist2-password'
p880
NsS'ws8-ext-sdk-ref'
p881
(lp882
sS'iphone-extra-string'
p883
(lp884
sS'version-string'
p885
NsS'iphone-icon-high-res-ios7'
p886
NsS'blackberry-permissions-record-audio'
p887
NsS'ws8-certificate-end-date'
p888
NsS'tizen-so'
p889
(lp890
sS'wp8-tile-fliptemplate-small-image'
p891
NsS'playbook-authorid'
p892
NsS'iphone-signing-identity'
p893
NsS'roku-persist-quota'
p894
NsS'nds-bannertitle-fr'
p895
NsS'ws8-distribution-pfx'
p896
NsS'ws8-publisher-display-name'
p897
NsS'brew-icon-small'
p898
NsS'psp-dlgpic2'
p899
NsS'psp-dlgpic0'
p900
NsS'psp-pic0'
p901
NsS'psp-pic1'
p902
NsS'win32-pref-windowtitle'
p903
NsS'psp-icon0'
p904
NsS'psp-icon1'
p905
NsS'ws81-identity-name'
p906
NsS'winmobile-icon'
p907
NsS'iphone-no-splash'
p908
NsS'iphone-splash'
p909
NsS'iphone-app-fonts'
p910
NsS'wp8-ext-native-dll'
p911
(lp912
sS'wp81-splash-screen-image480x800'
p913
NsS'ws81-distribution-cer'
p914
NsS'uiq3-icon2'
p915
NsS'uiq3-icon3'
p916
NsS'uiq3-icon1'
p917
NsS'uiq3-icon1-format'
p918
NsS'ws8-logo-image50x50'
p919
NsS'symbian-icon2-mask-black'
p920
NsS'symbian-run-on-install'
p921
NsS'wp81-description'
p922
NsS'ws81-publisher-display-name'
p923
NsS'firefoxos-xulrunner'
p924
NsS'symbian-soundrecordsupport'
p925
NsS'nds-bannertitle-sp'
p926
NsS'psp-producer'
p927
NsS'iphone-apple-wwdr-cert'
p928
NsS'android-icon-nonstandard'
p929
NsS'win32-pref-processtitle'
p930
NsS'nds-bannertitle-hn'
p931
NsS'tizen-dist2-key'
p932
NsS'brew-depends'
p933
NsS'ws81-custom-manifest'
p934
NsS'iphone-icon-ipad-search-ios7'
p935
NsS'brew-icon-medium'
p936
NsS'iphone-bundle-url-name'
p937
NsS'wp8-tile-fliptemplate-large-front-image'
p938
NsS'tizen-dist2-CA-root-path'
p939
NsS'ws81-description'
p940
NsS'uiq3-icon3-format'
p941
NsS'ws81-logo-image30x30'
p942
NsS'win8-phone-extra-res'
p943
(lp944
sS'iphone-signing-host'
p945
NsS'tizen-icon'
p946
NsS'osx-info-plist'
p947
NsS'symbian-icon1-format'
p948
NsS'win8-store-extra-res'
p949
(lp950
sS'blackberry-authorid'
p951
NsS'ws81-publisher-id'
p952
NsS'ws81-distribution-pfx'
p953
NsS'wp8-description'
p954
NsS'iphone-link-opts'
p955
(lp956
sS'ws81-ext-sdk-ref'
p957
(lp958
sS'roku-splash-min-time'
p959
NsS'wp8-tile-fliptemplate-medium-front-image'
p960
NsS'provider'
p961
NsS'playbook-keystore'
p962
NsS'tizen-appid'
p963
NsS'wp8-extra-res'
p964
(lp965
sS'symbian-osexecsupport'
p966
NsS'android-install-location'
p967
NsS'nds-privatesavedatasize'
p968
NsS'playbook-storepass'
p969
NsS'android-icon-ldpi'
p970
NsS'manufacturer'
p971
NsS'itunes-artwork'
p972
NsS'iphone-extra-sections'
p973
NsS'ws81-product-name'
p974
NsS'ws81-ext-native-dll'
p975
(lp976
sS'ws8-extra-pri'
p977
(lp978
sS'win32-icon'
p979
NsS'ws8-logo-image30x30'
p980
NsS'wp8-ext-managed-dll'
p981
(lp982
sS'iphone-splashscreen-landscape'
p983
NsS'symbian-maxheapsize'
p984
NsS'nds-makercode'
p985
NsS'priv-sign-key'
p986
NsS'networking'
p987
NsS'android-icon'
p988
NsS'iphone-icon-settings'
p989
NsS'wp81-phone-product-id'
p990
NsS'firefoxos-icon-60X60'
p991
NsS'iphone-distribution-cert'
p992
NsS'android_extra_strings'
p993
NsS'nds-bannertitle-en'
p994
NsS'wp8-tile-fliptemplate-title'
p995
NsS'android-so'
p996
(lp997
sS'wp8-higher-mem'
p998
NsS'wp8-ext-sdk-ref'
p999
(lp1000
sS'roku-splash-screen-hd'
p1001
NsS'iphone-bundle-url-schemes'
p1002
NsS'roku-screensaver-private'
p1003
NsS'osx-extra-res'
p1004
(lp1005
sS'ws81-extra-res'
p1006
(lp1007
sS'playbook-icon'
p1008
NsS'uid'
p1009
NsS'pkguid-as-uid'
p1010
NsS'wp81-ext-native-dll'
p1011
(lp1012
sS'tizen-dist1-password'
p1013
NsS'roku-screensaver-title'
p1014
NsS'osx-minimum-osx-version'
p1015
NsS'symbian-cert'
p1016
NsS'iphone-icon'
p1017
NsS'ws81-ext-capabilities'
p1018
(lp1019
sS'ws8-distribution-cer'
p1020
NsS'playbook-access-shared'
p1021
NsS'iphone-icon-ipad-high-res-ios7'
p1022
NsS'iphone-link-libs'
p1023
(lp1024
sS'wp8-exclude-wvga'
p1025
NsS'assets'
p1026
NsS'wp8-tile-fliptemplate-large-back-image'
p1027
NsS'wp8-custom-manifest-fill'
p1028
NsS'pub-sign-key'
p1029
NsS'android-extra-strings'
p1030
NsS'tizen-author-CA-path'
p1031
Nssg338
g574
sbssS'platform'
p1032
S'S3E'
p1033
sg65
S'1.0'
p1034
sS'arcade_platform'
p1035
g4
sS'extensions'
p1036
(dp1037
sS'source_groups_tree'
p1038
(dp1039
S'(libpng)'
p1040
(dp1041
S'h'
p1042
(dp1043
S'c:/marmalade/7.4/modules/third_party/libpng/h/png.h'
p1044
(lp1045
I1
a(dp1046
asS'c:/marmalade/7.4/modules/third_party/libpng/h/pngconf.h'
p1047
(lp1048
I1
ag1046
assS'c:/marmalade/7.4/modules/third_party/libpng/libpng.mkf'
p1049
(lp1050
I1
a(dp1051
assS'(libjpeg)'
p1052
(dp1053
g1042
(dp1054
S'c:/marmalade/7.4/modules/third_party/libjpeg/h/jerror.h'
p1055
(lp1056
I1
a(dp1057
asS'c:/marmalade/7.4/modules/third_party/libjpeg/h/jmemsys.h'
p1058
(lp1059
I1
ag1057
asS'c:/marmalade/7.4/modules/third_party/libjpeg/h/jchuff.h'
p1060
(lp1061
I1
ag1057
asS'c:/marmalade/7.4/modules/third_party/libjpeg/h/jpeglib.h'
p1062
(lp1063
I1
ag1057
asS'c:/marmalade/7.4/modules/third_party/libjpeg/h/cdjpeg.h'
p1064
(lp1065
I1
ag1057
asS'c:/marmalade/7.4/modules/third_party/libjpeg/h/jinclude.h'
p1066
(lp1067
I1
ag1057
asS'c:/marmalade/7.4/modules/third_party/libjpeg/h/jconfig.h'
p1068
(lp1069
I1
ag1057
asS'c:/marmalade/7.4/modules/third_party/libjpeg/h/cderror.h'
p1070
(lp1071
I1
ag1057
asS'c:/marmalade/7.4/modules/third_party/libjpeg/h/jdct.h'
p1072
(lp1073
I1
ag1057
asS'c:/marmalade/7.4/modules/third_party/libjpeg/h/jversion.h'
p1074
(lp1075
I1
ag1057
asS'c:/marmalade/7.4/modules/third_party/libjpeg/h/transupp.h'
p1076
(lp1077
I1
ag1057
asS'c:/marmalade/7.4/modules/third_party/libjpeg/h/jdhuff.h'
p1078
(lp1079
I1
ag1057
asS'c:/marmalade/7.4/modules/third_party/libjpeg/h/jpegint.h'
p1080
(lp1081
I1
ag1057
asS'c:/marmalade/7.4/modules/third_party/libjpeg/h/jmorecfg.h'
p1082
(lp1083
I1
ag1057
assS'c:/marmalade/7.4/modules/third_party/libjpeg/libjpeg.mkf'
p1084
(lp1085
I1
a(dp1086
assS'(tiniconv)'
p1087
(dp1088
S'c:/marmalade/7.4/modules/third_party/tiniconv/source/tiniconv_int.h'
p1089
(lp1090
I1
a(dp1091
asS'c:/marmalade/7.4/modules/third_party/tiniconv/tiniconv.mkf'
p1092
(lp1093
I1
a(dp1094
asS'c:/marmalade/7.4/modules/third_party/tiniconv/source/tiniconv.h'
p1095
(lp1096
I1
ag1091
assS'(SoundEngine)'
p1097
(dp1098
S'c:/marmalade/7.4/examples/gametutorial/cpp/modules/soundengine/h/IwSoundInst.h'
p1099
(lp1100
I1
a(dp1101
asS'c:/marmalade/7.4/examples/gametutorial/cpp/modules/soundengine/h/IwSoundWAV.h'
p1102
(lp1103
I1
ag1101
asS'c:/marmalade/7.4/examples/gametutorial/cpp/modules/soundengine/source/IwSoundParams.cpp'
p1104
(lp1105
I1
ag1101
asS'c:/marmalade/7.4/examples/gametutorial/cpp/modules/soundengine/source/IwSoundManager.cpp'
p1106
(lp1107
I1
ag1101
asS'c:/marmalade/7.4/examples/gametutorial/cpp/modules/soundengine/h/IwSoundPCM.h'
p1108
(lp1109
I1
ag1101
asS'Docs'
p1110
(dp1111
S'c:/marmalade/7.4/examples/gametutorial/cpp/modules/soundengine/docs/iwsound.config.txt'
p1112
(lp1113
I1
ag1101
assS'c:/marmalade/7.4/examples/gametutorial/cpp/modules/soundengine/h/IwSoundGroup.h'
p1114
(lp1115
I1
ag1101
asS'c:/marmalade/7.4/examples/gametutorial/cpp/modules/soundengine/soundengine.mkf'
p1116
(lp1117
I1
a(dp1118
asS'c:/marmalade/7.4/examples/gametutorial/cpp/modules/soundengine/h/IwSoundManager.h'
p1119
(lp1120
I1
ag1101
asS'c:/marmalade/7.4/examples/gametutorial/cpp/modules/soundengine/source/IwSoundGroup.cpp'
p1121
(lp1122
I1
ag1101
asS'c:/marmalade/7.4/examples/gametutorial/cpp/modules/soundengine/source/IwSoundADPCM.cpp'
p1123
(lp1124
I1
ag1101
asS'c:/marmalade/7.4/examples/gametutorial/cpp/modules/soundengine/source/IwSoundPCM.cpp'
p1125
(lp1126
I1
ag1101
asS'c:/marmalade/7.4/examples/gametutorial/cpp/modules/soundengine/h/IwSoundSpec.h'
p1127
(lp1128
I1
ag1101
asS'c:/marmalade/7.4/examples/gametutorial/cpp/modules/soundengine/source/IwSoundData.cpp'
p1129
(lp1130
I1
ag1101
asS'c:/marmalade/7.4/examples/gametutorial/cpp/modules/soundengine/source/IwResHandlerWAV.cpp'
p1131
(lp1132
I1
ag1101
asS'c:/marmalade/7.4/examples/gametutorial/cpp/modules/soundengine/h/IwSoundADPCM.h'
p1133
(lp1134
I1
ag1101
asS'c:/marmalade/7.4/examples/gametutorial/cpp/modules/soundengine/h/IwSoundParams.h'
p1135
(lp1136
I1
ag1101
asS'c:/marmalade/7.4/examples/gametutorial/cpp/modules/soundengine/h/IwSound.h'
p1137
(lp1138
I1
ag1101
asS'c:/marmalade/7.4/examples/gametutorial/cpp/modules/soundengine/source/IwSoundSpec.cpp'
p1139
(lp1140
I1
ag1101
asS'c:/marmalade/7.4/examples/gametutorial/cpp/modules/soundengine/h/IwSoundData.h'
p1141
(lp1142
I1
ag1101
asS'c:/marmalade/7.4/examples/gametutorial/cpp/modules/soundengine/source/IwSoundInst.cpp'
p1143
(lp1144
I1
ag1101
asS'c:/marmalade/7.4/examples/gametutorial/cpp/modules/soundengine/h/IwResHandlerWAV.h'
p1145
(lp1146
I1
ag1101
asS'c:/marmalade/7.4/examples/gametutorial/cpp/modules/soundengine/source/IwSoundWAV.cpp'
p1147
(lp1148
I1
ag1101
assS'(MarmaladeExampleResources)'
p1149
(dp1150
S'c:/marmalade/7.4/examples/marmaladeexampleresources/marmaladeexampleresources.mkf'
p1151
(lp1152
I1
a(dp1153
assS'include'
p1154
(dp1155
S'e:/Documents/Michiel/Programmeren/Marmalade/MVSStage4/include/scene.h'
p1156
(lp1157
I1
a(dp1158
asS'e:/Documents/Michiel/Programmeren/Marmalade/MVSStage4/include/resources.h'
p1159
(lp1160
I1
ag1158
asS'e:/Documents/Michiel/Programmeren/Marmalade/MVSStage4/include/input.h'
p1161
(lp1162
I1
ag1158
asS'e:/Documents/Michiel/Programmeren/Marmalade/MVSStage4/include/audio.h'
p1163
(lp1164
I1
ag1158
asS'e:/Documents/Michiel/Programmeren/Marmalade/MVSStage4/include/game.h'
p1165
(lp1166
I1
ag1158
asS'e:/Documents/Michiel/Programmeren/Marmalade/MVSStage4/include/pauseMenu.h'
p1167
(lp1168
I1
ag1158
asS'e:/Documents/Michiel/Programmeren/Marmalade/MVSStage4/include/main.h'
p1169
(lp1170
I1
ag1158
asS'e:/Documents/Michiel/Programmeren/Marmalade/MVSStage4/include/mainMenu.h'
p1171
(lp1172
I1
ag1158
assS'source'
p1173
(dp1174
S'e:/Documents/Michiel/Programmeren/Marmalade/MVSStage4/source/scene.cpp'
p1175
(lp1176
I1
ag1158
asS'e:/Documents/Michiel/Programmeren/Marmalade/MVSStage4/source/mainMenu.cpp'
p1177
(lp1178
I1
ag1158
asS'e:/Documents/Michiel/Programmeren/Marmalade/MVSStage4/source/resources.cpp'
p1179
(lp1180
I1
ag1158
asS'e:/Documents/Michiel/Programmeren/Marmalade/MVSStage4/source/audio.cpp'
p1181
(lp1182
I1
ag1158
asS'e:/Documents/Michiel/Programmeren/Marmalade/MVSStage4/source/pauseMenu.cpp'
p1183
(lp1184
I1
ag1158
asS'e:/Documents/Michiel/Programmeren/Marmalade/MVSStage4/source/input.cpp'
p1185
(lp1186
I1
ag1158
asS'e:/Documents/Michiel/Programmeren/Marmalade/MVSStage4/source/MVSStage4_main.cpp'
p1187
(lp1188
I1
ag1158
asS'e:/Documents/Michiel/Programmeren/Marmalade/MVSStage4/source/game.cpp'
p1189
(lp1190
I1
ag1158
assS'Extensions'
p1191
(dp1192
S'PVRTexTool'
p1193
(dp1194
S'interface'
p1195
(dp1196
S'c:/marmalade/7.4/extensions/pvrtextool/interface/PVRTexTool_interface.cpp'
p1197
(lp1198
I1
a(dp1199
asS'c:/marmalade/7.4/extensions/pvrtextool/interface/PVRTexTool.defines.txt'
p1200
(lp1201
I1
ag1199
assS'c:/marmalade/7.4/extensions/pvrtextool/pvrtextool.mkf'
p1202
(lp1203
I1
a(dp1204
asS'c:/marmalade/7.4/extensions/pvrtextool/h/PVRTexTool.h'
p1205
(lp1206
I1
ag1199
asssS"'Marmalade Studio'"
p1207
(dp1208
S'iw2dscenegraph'
p1209
(dp1210
S'c:/marmalade/7.4/modules/iw2dscenegraph/h/Iw2DSceneGraph.h'
p1211
(lp1212
I1
a(dp1213
asS'c:/marmalade/7.4/modules/iw2dscenegraph/source/Iw2DSceneGraph.cpp'
p1214
(lp1215
I1
ag1213
asS'c:/marmalade/7.4/modules/iw2dscenegraph/iw2dscenegraph.mkf'
p1216
(lp1217
I1
a(dp1218
asS'c:/marmalade/7.4/modules/iw2dscenegraph/docs/iw2dscenegraph.defines.txt'
p1219
(lp1220
I1
ag1213
assS'iwgl'
p1221
(dp1222
S'c:/marmalade/7.4/modules/iwgl/iwgl.mkf'
p1223
(lp1224
I1
a(dp1225
asS'c:/marmalade/7.4/modules/iwgl/docs/iwgl.config.txt'
p1226
(lp1227
I1
a(dp1228
asS'c:/marmalade/7.4/modules/iwgl/h/IwGL.h'
p1229
(lp1230
I1
ag1228
asS'c:/marmalade/7.4/modules/iwgl/h/IwGLExt.h'
p1231
(lp1232
I1
ag1228
assS'iw2d'
p1233
(dp1234
S'c:/marmalade/7.4/modules/iw2d/docs/iw2d.config.txt'
p1235
(lp1236
I1
a(dp1237
asS'c:/marmalade/7.4/modules/iw2d/docs/iw2d_public.defines.txt'
p1238
(lp1239
I1
ag1237
asS'c:/marmalade/7.4/modules/iw2d/h/Iw2D.h'
p1240
(lp1241
I1
ag1237
asS'c:/marmalade/7.4/modules/iw2d/iw2d.mkf'
p1242
(lp1243
I1
a(dp1244
assS'iwgxfont'
p1245
(dp1246
S'c:/marmalade/7.4/modules/iwgxfont/docs/iwgxfont_public.defines.txt'
p1247
(lp1248
I1
a(dp1249
asS'c:/marmalade/7.4/modules/iwgxfont/h/IwGxFontGlyph.h'
p1250
(lp1251
I1
ag1249
asS'c:/marmalade/7.4/modules/iwgxfont/docs/iwgxfont.config.txt'
p1252
(lp1253
I1
ag1249
asS'c:/marmalade/7.4/modules/iwgxfont/h/IwGxFont.h'
p1254
(lp1255
I1
ag1249
asS'c:/marmalade/7.4/modules/iwgxfont/h/IwGxFontTypes.h'
p1256
(lp1257
I1
ag1249
asS'c:/marmalade/7.4/modules/iwgxfont/h/IwGxFontPreparedData.h'
p1258
(lp1259
I1
ag1249
asS'c:/marmalade/7.4/modules/iwgxfont/h/IwGxFontState.h'
p1260
(lp1261
I1
ag1249
asS'c:/marmalade/7.4/modules/iwgxfont/h/IwGxFontContainer.h'
p1262
(lp1263
I1
ag1249
asS'c:/marmalade/7.4/modules/iwgxfont/iwgxfont.mkf'
p1264
(lp1265
I1
a(dp1266
assS'iwgeom'
p1267
(dp1268
S'c:/marmalade/7.4/modules/iwgeom/docs/iwgeom.config.txt'
p1269
(lp1270
I1
a(dp1271
asS'c:/marmalade/7.4/modules/iwgeom/h/IwGeomFIntersect.h'
p1272
(lp1273
I1
ag1271
asS'c:/marmalade/7.4/modules/iwgeom/h/IwGeomMat2D.h.tpl'
p1274
(lp1275
I1
ag1271
asS'c:/marmalade/7.4/modules/iwgeom/iwgeom.mkf'
p1276
(lp1277
I1
a(dp1278
asS'c:/marmalade/7.4/modules/iwgeom/h/IwGeomVec.h.tpl'
p1279
(lp1280
I1
ag1271
asS'c:/marmalade/7.4/modules/iwgeom/h/IwGeomFSphere.h'
p1281
(lp1282
I1
ag1271
asS'c:/marmalade/7.4/modules/iwgeom/h/IwGeomFQuat.h'
p1283
(lp1284
I1
ag1271
asS'c:/marmalade/7.4/modules/iwgeom/h/IwGeomMenu.h'
p1285
(lp1286
I1
ag1271
asS'c:/marmalade/7.4/modules/iwgeom/h/IwGeomFMat2D.h'
p1287
(lp1288
I1
ag1271
asS'c:/marmalade/7.4/modules/iwgeom/h/IwGeomFVec4.h'
p1289
(lp1290
I1
ag1271
asS'c:/marmalade/7.4/modules/iwgeom/h/IwGeomQuat.h'
p1291
(lp1292
I1
ag1271
asS'c:/marmalade/7.4/modules/iwgeom/h/IwGeomFBBox.h'
p1293
(lp1294
I1
ag1271
asS'c:/marmalade/7.4/modules/iwgeom/h/IwGeomSVec4.h'
p1295
(lp1296
I1
ag1271
asS'c:/marmalade/7.4/modules/iwgeom/h/IwGeomFVec2.h'
p1297
(lp1298
I1
ag1271
asS'c:/marmalade/7.4/modules/iwgeom/h/IwGeomVec.h'
p1299
(lp1300
I1
ag1271
asS'c:/marmalade/7.4/modules/iwgeom/h/IwGeomPlane.h'
p1301
(lp1302
I1
ag1271
asS'c:/marmalade/7.4/modules/iwgeom/h/IwGeomQuat.h.tpl'
p1303
(lp1304
I1
ag1271
asS'c:/marmalade/7.4/modules/iwgeom/h/IwGeomSVec3.h'
p1305
(lp1306
I1
ag1271
asS'c:/marmalade/7.4/modules/iwgeom/h/IwGeomMat.h'
p1307
(lp1308
I1
ag1271
asS'c:/marmalade/7.4/modules/iwgeom/h/IwGeomVec3.h'
p1309
(lp1310
I1
ag1271
asS'c:/marmalade/7.4/modules/iwgeom/h/IwGeomVec2.h'
p1311
(lp1312
I1
ag1271
asS'c:/marmalade/7.4/modules/iwgeom/h/IwGeomLegacy.h'
p1313
(lp1314
I1
ag1271
asS'c:/marmalade/7.4/modules/iwgeom/h/IwGeomSQuat.h'
p1315
(lp1316
I1
ag1271
asS'c:/marmalade/7.4/modules/iwgeom/h/IwGeomCore.h'
p1317
(lp1318
I1
ag1271
asS'c:/marmalade/7.4/modules/iwgeom/h/IwGeomVec4.h'
p1319
(lp1320
I1
ag1271
asS'c:/marmalade/7.4/modules/iwgeom/h/IwGeomBBox.h'
p1321
(lp1322
I1
ag1271
asS'c:/marmalade/7.4/modules/iwgeom/h/IwGeomIntersect.h'
p1323
(lp1324
I1
ag1271
asS'c:/marmalade/7.4/modules/iwgeom/h/IwGeomSVec2.h'
p1325
(lp1326
I1
ag1271
asS'c:/marmalade/7.4/modules/iwgeom/h/IwGeomMat2D.h'
p1327
(lp1328
I1
ag1271
asS'c:/marmalade/7.4/modules/iwgeom/h/IwGeomSphere.h'
p1329
(lp1330
I1
ag1271
asS'c:/marmalade/7.4/modules/iwgeom/h/IwGeomFVec3.h'
p1331
(lp1332
I1
ag1271
asS'c:/marmalade/7.4/modules/iwgeom/h/IwGeom.h'
p1333
(lp1334
I1
ag1271
asS'c:/marmalade/7.4/modules/iwgeom/h/IwGeomMat.h.tpl'
p1335
(lp1336
I1
ag1271
asS'c:/marmalade/7.4/modules/iwgeom/h/IwGeomFPlane.h'
p1337
(lp1338
I1
ag1271
asS'c:/marmalade/7.4/modules/iwgeom/h/IwGeomFMat.h'
p1339
(lp1340
I1
ag1271
asS'c:/marmalade/7.4/modules/iwgeom/h/IwGeomSqrt.h'
p1341
(lp1342
I1
ag1271
assS'iwresmanager'
p1343
(dp1344
S'c:/marmalade/7.4/modules/iwresmanager/h/IwResHandlerITX.h'
p1345
(lp1346
I1
a(dp1347
asS'c:/marmalade/7.4/modules/iwresmanager/h/IwResGroup.h'
p1348
(lp1349
I1
ag1347
asS'c:/marmalade/7.4/modules/iwresmanager/h/IwResManager.h'
p1350
(lp1351
I1
ag1347
asS'c:/marmalade/7.4/modules/iwresmanager/h/IwResManagerClass.h'
p1352
(lp1353
I1
ag1347
asS'c:/marmalade/7.4/modules/iwresmanager/h/IwResSerialise.h'
p1354
(lp1355
I1
ag1347
asS'c:/marmalade/7.4/modules/iwresmanager/h/IwResHandlerGROUP.h'
p1356
(lp1357
I1
ag1347
asS'c:/marmalade/7.4/modules/iwresmanager/iwresmanager.mkf'
p1358
(lp1359
I1
a(dp1360
asS'c:/marmalade/7.4/modules/iwresmanager/h/IwResHandlerImage.h'
p1361
(lp1362
I1
ag1347
asS'c:/marmalade/7.4/modules/iwresmanager/h/IwResHandler.h'
p1363
(lp1364
I1
ag1347
asS'c:/marmalade/7.4/modules/iwresmanager/docs/iwresmanager.config.txt'
p1365
(lp1366
I1
ag1347
assS'iwgx'
p1367
(dp1368
S'c:/marmalade/7.4/modules/iwgx/h/IwDebugPrim.h'
p1369
(lp1370
I1
a(dp1371
asS'c:/marmalade/7.4/modules/iwgx/h/IwGxFuncTable.h'
p1372
(lp1373
I1
ag1371
asS'c:/marmalade/7.4/modules/iwgx/h/IwClip.inl'
p1374
(lp1375
I1
ag1371
asS'c:/marmalade/7.4/modules/iwgx/h/IwGxPrint.h'
p1376
(lp1377
I1
ag1371
asS'c:/marmalade/7.4/modules/iwgx/h/IwGx.h'
p1378
(lp1379
I1
ag1371
asS'c:/marmalade/7.4/modules/iwgx/h/IwTexture.h'
p1380
(lp1381
I1
ag1371
asS'c:/marmalade/7.4/modules/iwgx/h/IwFColour.h'
p1382
(lp1383
I1
ag1371
asS'c:/marmalade/7.4/modules/iwgx/h/IwColour.h'
p1384
(lp1385
I1
ag1371
asS'c:/marmalade/7.4/modules/iwgx/h/IwGxState.h'
p1386
(lp1387
I1
ag1371
asS'c:/marmalade/7.4/modules/iwgx/h/IwClip.h'
p1388
(lp1389
I1
ag1371
asS'c:/marmalade/7.4/modules/iwgx/h/IwTPage.h'
p1390
(lp1391
I1
ag1371
asS'c:/marmalade/7.4/modules/iwgx/h/IwMaterial.h'
p1392
(lp1393
I1
ag1371
asS'c:/marmalade/7.4/modules/iwgx/h/IwGxDebug.h'
p1394
(lp1395
I1
ag1371
asS'c:/marmalade/7.4/modules/iwgx/h/IwMatAnim.h'
p1396
(lp1397
I1
ag1371
asS'c:/marmalade/7.4/modules/iwgx/h/IwGxStream.h'
p1398
(lp1399
I1
ag1371
asS'c:/marmalade/7.4/modules/iwgx/h/IwResHandlerMTL.h'
p1400
(lp1401
I1
ag1371
asS'c:/marmalade/7.4/modules/iwgx/h/IwGxMetrics.h'
p1402
(lp1403
I1
ag1371
asS'c:/marmalade/7.4/modules/iwgx/h/IwGxError.h'
p1404
(lp1405
I1
ag1371
asS'c:/marmalade/7.4/modules/iwgx/docs/iwgx.config.txt'
p1406
(lp1407
I1
ag1371
asS'c:/marmalade/7.4/modules/iwgx/h/IwGxTransformSW.h'
p1408
(lp1409
I1
ag1371
asS'c:/marmalade/7.4/modules/iwgx/iwgx.mkf'
p1410
(lp1411
I1
a(dp1412
asS'c:/marmalade/7.4/modules/iwgx/docs/iwgx_public.defines.txt'
p1413
(lp1414
I1
ag1371
asS'c:/marmalade/7.4/modules/iwgx/h/IwGxShaderTechnique.h'
p1415
(lp1416
I1
ag1371
asS'c:/marmalade/7.4/modules/iwgx/h/IwGxTypes.h'
p1417
(lp1418
I1
ag1371
asS'c:/marmalade/7.4/modules/iwgx/h/IwGxSurface.h'
p1419
(lp1420
I1
ag1371
assS'iw2dscenegraphcore'
p1421
(dp1422
S'c:/marmalade/7.4/modules/iw2dscenegraphcore/iw2dscenegraphcore.mkf'
p1423
(lp1424
I1
a(dp1425
asS'c:/marmalade/7.4/modules/iw2dscenegraphcore/source/Iw2DSceneGraphCore.cpp'
p1426
(lp1427
I1
a(dp1428
asS'c:/marmalade/7.4/modules/iw2dscenegraphcore/h/Iw2DSceneGraphCore.h'
p1429
(lp1430
I1
ag1428
assS'iwutil'
p1431
(dp1432
S'c:/marmalade/7.4/modules/iwutil/h/IwTextParser.h'
p1433
(lp1434
I1
a(dp1435
asS'c:/marmalade/7.4/modules/iwutil/h/IwMenu.h'
p1436
(lp1437
I1
ag1435
asS'c:/marmalade/7.4/modules/iwutil/h/IwUtilInitTerm.h'
p1438
(lp1439
I1
ag1435
asS'c:/marmalade/7.4/modules/iwutil/h/IwCopyingPtr.h'
p1440
(lp1441
I1
ag1435
asS'c:/marmalade/7.4/modules/iwutil/h/IwDebug.h'
p1442
(lp1443
I1
ag1435
asS'c:/marmalade/7.4/modules/iwutil/h/IwDivTable.h'
p1444
(lp1445
I1
ag1435
asS'c:/marmalade/7.4/modules/iwutil/h/IwBuffer.h'
p1446
(lp1447
I1
ag1435
asS'c:/marmalade/7.4/modules/iwutil/h/IwRandom.h'
p1448
(lp1449
I1
ag1435
asS'c:/marmalade/7.4/modules/iwutil/h/IwResource.h'
p1450
(lp1451
I1
ag1435
asS'c:/marmalade/7.4/modules/iwutil/h/IwCore.h'
p1452
(lp1453
I1
ag1435
asS'c:/marmalade/7.4/modules/iwutil/h/IwTextParserITX.h'
p1454
(lp1455
I1
ag1435
asS'c:/marmalade/7.4/modules/iwutil/h/IwManaged.h'
p1456
(lp1457
I1
ag1435
asS'c:/marmalade/7.4/modules/iwutil/h/IwHashString.h'
p1458
(lp1459
I1
ag1435
asS'c:/marmalade/7.4/modules/iwutil/h/IwProfileMenu.h'
p1460
(lp1461
I1
ag1435
asS'c:/marmalade/7.4/modules/iwutil/h/IwManagedList.h'
p1462
(lp1463
I1
ag1435
asS'c:/marmalade/7.4/modules/iwutil/h/IwList.h'
p1464
(lp1465
I1
ag1435
asS'c:/marmalade/7.4/modules/iwutil/h/IwSerialise.h'
p1466
(lp1467
I1
ag1435
asS'c:/marmalade/7.4/modules/iwutil/h/IwClassFactory.h'
p1468
(lp1469
I1
ag1435
asS'c:/marmalade/7.4/modules/iwutil/h/IwTypes.h'
p1470
(lp1471
I1
ag1435
asS'c:/marmalade/7.4/modules/iwutil/h/IwAllocator.h'
p1472
(lp1473
I1
ag1435
asS'c:/marmalade/7.4/modules/iwutil/h/IwMemory.h'
p1474
(lp1475
I1
ag1435
asS'c:/marmalade/7.4/modules/iwutil/h/IwTextParseable.h'
p1476
(lp1477
I1
ag1435
asS'c:/marmalade/7.4/modules/iwutil/h/IwFile.h'
p1478
(lp1479
I1
ag1435
asS'c:/marmalade/7.4/modules/iwutil/h/IwRuntime.h'
p1480
(lp1481
I1
ag1435
asS'c:/marmalade/7.4/modules/iwutil/h/IwMemBucketHelpers.h'
p1482
(lp1483
I1
ag1435
asS'c:/marmalade/7.4/modules/iwutil/h/IwUncopyable.h'
p1484
(lp1485
I1
ag1435
asS'c:/marmalade/7.4/modules/iwutil/h/IwChar.h'
p1486
(lp1487
I1
ag1435
asS'c:/marmalade/7.4/modules/iwutil/h/IwOptimiseARM.h'
p1488
(lp1489
I1
ag1435
asS'c:/marmalade/7.4/modules/iwutil/h/IwImage.h'
p1490
(lp1491
I1
ag1435
asS'c:/marmalade/7.4/modules/iwutil/h/IwImageHelper.h'
p1492
(lp1493
I1
ag1435
asS'c:/marmalade/7.4/modules/iwutil/h/IwMemBucket.h'
p1494
(lp1495
I1
ag1435
asS'c:/marmalade/7.4/modules/iwutil/h/IwDivide.h'
p1496
(lp1497
I1
ag1435
asS'c:/marmalade/7.4/modules/iwutil/h/IwOptimiseSpeed.h'
p1498
(lp1499
I1
ag1435
asS'c:/marmalade/7.4/modules/iwutil/h/IwArray.h'
p1500
(lp1501
I1
ag1435
asS'c:/marmalade/7.4/modules/iwutil/docs/iwutil.config.txt'
p1502
(lp1503
I1
ag1435
asS'c:/marmalade/7.4/modules/iwutil/h/IwUTF8.h'
p1504
(lp1505
I1
ag1435
asS'c:/marmalade/7.4/modules/iwutil/h/IwEvent.h'
p1506
(lp1507
I1
ag1435
asS'c:/marmalade/7.4/modules/iwutil/h/IwMath.h'
p1508
(lp1509
I1
ag1435
asS'c:/marmalade/7.4/modules/iwutil/h/IwFibre.h'
p1510
(lp1511
I1
ag1435
asS'c:/marmalade/7.4/modules/iwutil/h/IwString.h'
p1512
(lp1513
I1
ag1435
asS'c:/marmalade/7.4/modules/iwutil/h/IwKeymap.h'
p1514
(lp1515
I1
ag1435
asS'c:/marmalade/7.4/modules/iwutil/iwutil.mkf'
p1516
(lp1517
I1
a(dp1518
asS'c:/marmalade/7.4/modules/iwutil/h/IwSingleton.h'
p1519
(lp1520
I1
ag1435
asS'c:/marmalade/7.4/modules/iwutil/h/IwAutoFile.h'
p1521
(lp1522
I1
ag1435
asS'c:/marmalade/7.4/modules/iwutil/h/IwOptimiseThumb.h'
p1523
(lp1524
I1
ag1435
asS'c:/marmalade/7.4/modules/iwutil/h/IwUtil.h'
p1525
(lp1526
I1
ag1435
asS'c:/marmalade/7.4/modules/iwutil/h/IwPath.h'
p1527
(lp1528
I1
ag1435
asS'c:/marmalade/7.4/modules/iwutil/h/IwMemManagerDL.h'
p1529
(lp1530
I1
ag1435
asS'c:/marmalade/7.4/modules/iwutil/h/IwVariableBitField.h'
p1531
(lp1532
I1
ag1435
asS'c:/marmalade/7.4/modules/iwutil/h/IwOptimiseSize.h'
p1533
(lp1534
I1
ag1435
asssS'(zlib)'
p1535
(dp1536
g1042
(dp1537
S'c:/marmalade/7.4/modules/third_party/zlib/h/zconf.h'
p1538
(lp1539
I1
a(dp1540
asS'c:/marmalade/7.4/modules/third_party/zlib/h/zlib.h'
p1541
(lp1542
I1
ag1540
assS'c:/marmalade/7.4/modules/third_party/zlib/zlib.mkf'
p1543
(lp1544
I1
a(dp1545
assS'(iwtween)'
p1546
(dp1547
S'c:/marmalade/7.4/modules/iwtween/source/IwTween.cpp'
p1548
(lp1549
I1
a(dp1550
asS'c:/marmalade/7.4/modules/iwtween/h/IwTween.h'
p1551
(lp1552
I1
ag1550
asS'c:/marmalade/7.4/modules/iwtween/iwtween.mkf'
p1553
(lp1554
I1
a(dp1555
asssS'files'
p1556
(dp1557
S'IwGxFontPreparedData.h'
p1558
g312
(cmkb_main
File
p1559
g314
Ntp1560
Rp1561
(dp1562
S'flags'
p1563
g1249
sS'group'
p1564
(lp1565
S"'Marmalade Studio'"
p1566
ag1245
asg338
g1258
sbsS'iterator'
p1567
g312
(g1559
g314
Ntp1568
Rp1569
(dp1570
g1563
(dp1571
sg1564
(lp1572
S"'Marmalade System (S3E)'"
p1573
aS'stdc headers'
p1574
aS'c++'
p1575
asg338
S'c:/marmalade/7.4/s3e/h/std/c++/iterator'
p1576
sbsS'IwGL.h'
p1577
g312
(g1559
g314
Ntp1578
Rp1579
(dp1580
g1563
g1228
sg1564
(lp1581
S"'Marmalade Studio'"
p1582
ag1221
asg338
g1229
sbsS's3e.h'
p1583
g312
(g1559
g314
Ntp1584
Rp1585
(dp1586
g1563
g1571
sg1564
(lp1587
g1573
asg338
S'c:/marmalade/7.4/s3e/h/s3e.h'
p1588
sbsS'errno.h'
p1589
g312
(g1559
g314
Ntp1590
Rp1591
(dp1592
g1563
g1571
sg1564
(lp1593
g1573
aS'stdc headers'
p1594
asg338
S'c:/marmalade/7.4/s3e/h/std/errno.h'
p1595
sbsS'IwSingleton.h'
p1596
g312
(g1559
g314
Ntp1597
Rp1598
(dp1599
g1563
g1435
sg1564
(lp1600
S"'Marmalade Studio'"
p1601
ag1431
asg338
g1519
sbsS'dlfcn.h'
p1602
g312
(g1559
g314
Ntp1603
Rp1604
(dp1605
g1563
g1571
sg1564
g1593
sg338
S'c:/marmalade/7.4/s3e/h/std/dlfcn.h'
p1606
sbsS'IwSoundWAV.cpp'
p1607
g312
(g1559
g314
Ntp1608
Rp1609
(dp1610
g1563
g1101
sg1564
(lp1611
g1097
asg338
g1147
sbsS'sched.h'
p1612
g312
(g1559
g314
Ntp1613
Rp1614
(dp1615
g1563
g1571
sg1564
g1593
sg338
S'c:/marmalade/7.4/s3e/h/std/sched.h'
p1616
sbsS'IwSoundPCM.h'
p1617
g312
(g1559
g314
Ntp1618
Rp1619
(dp1620
g1563
g1101
sg1564
g1611
sg338
g1108
sbsS'IwGeomFMat2D.h'
p1621
g312
(g1559
g314
Ntp1622
Rp1623
(dp1624
g1563
g1271
sg1564
(lp1625
S"'Marmalade Studio'"
p1626
ag1267
asg338
g1287
sbsS'cassert'
p1627
g312
(g1559
g314
Ntp1628
Rp1629
(dp1630
g1563
g1571
sg1564
g1572
sg338
S'c:/marmalade/7.4/s3e/h/std/c++/cassert'
p1631
sbsS'grp.h'
p1632
g312
(g1559
g314
Ntp1633
Rp1634
(dp1635
g1563
g1571
sg1564
g1593
sg338
S'c:/marmalade/7.4/s3e/h/std/grp.h'
p1636
sbsS'list'
p1637
g312
(g1559
g314
Ntp1638
Rp1639
(dp1640
g1563
g1571
sg1564
g1572
sg338
S'c:/marmalade/7.4/s3e/h/std/c++/list'
p1641
sbsS'IwSoundSpec.cpp'
p1642
g312
(g1559
g314
Ntp1643
Rp1644
(dp1645
g1563
g1101
sg1564
g1611
sg338
g1139
sbsS'IwGeomMat.h.tpl'
p1646
g312
(g1559
g314
Ntp1647
Rp1648
(dp1649
g1563
g1271
sg1564
g1625
sg338
g1335
sbsS'istream'
p1650
g312
(g1559
g314
Ntp1651
Rp1652
(dp1653
g1563
g1571
sg1564
g1572
sg338
S'c:/marmalade/7.4/s3e/h/std/c++/istream'
p1654
sbsS'jpeglib.h'
p1655
g312
(g1559
g314
Ntp1656
Rp1657
(dp1658
g1563
g1057
sg1564
(lp1659
g1052
ag1042
asg338
g1062
sbsS'iw2d_public.defines.txt'
p1660
g312
(g1559
g314
Ntp1661
Rp1662
(dp1663
g1563
g1237
sg1564
(lp1664
S"'Marmalade Studio'"
p1665
ag1233
asg338
g1238
sbsS'iostream.h'
p1666
g312
(g1559
g314
Ntp1667
Rp1668
(dp1669
g1563
g1571
sg1564
g1572
sg338
S'c:/marmalade/7.4/s3e/h/std/c++/iostream.h'
p1670
sbsS'IwSoundADPCM.h'
p1671
g312
(g1559
g314
Ntp1672
Rp1673
(dp1674
g1563
g1101
sg1564
g1611
sg338
g1133
sbsS'string'
p1675
g312
(g1559
g314
Ntp1676
Rp1677
(dp1678
g1563
g1571
sg1564
g1572
sg338
S'c:/marmalade/7.4/s3e/h/std/c++/string'
p1679
sbsS'IwMemory.h'
p1680
g312
(g1559
g314
Ntp1681
Rp1682
(dp1683
g1563
g1435
sg1564
g1600
sg338
g1474
sbsS'IwGeomPlane.h'
p1684
g312
(g1559
g314
Ntp1685
Rp1686
(dp1687
g1563
g1271
sg1564
g1625
sg338
g1301
sbsS'iw2d.config.txt'
p1688
g312
(g1559
g314
Ntp1689
Rp1690
(dp1691
g1563
g1237
sg1564
g1664
sg338
g1235
sbsS'iomanip'
p1692
g312
(g1559
g314
Ntp1693
Rp1694
(dp1695
g1563
g1571
sg1564
g1572
sg338
S'c:/marmalade/7.4/s3e/h/std/c++/iomanip'
p1696
sbsS'iwgeom.mkf'
p1697
g312
(g1559
g314
Ntp1698
Rp1699
(dp1700
g1563
g1278
sg1564
g1625
sg338
g1276
sbsS'IwGxError.h'
p1701
g312
(g1559
g314
Ntp1702
Rp1703
(dp1704
g1563
g1371
sg1564
(lp1705
S"'Marmalade Studio'"
p1706
ag1367
asg338
g1404
sbsS'IwGeom.h'
p1707
g312
(g1559
g314
Ntp1708
Rp1709
(dp1710
g1563
g1271
sg1564
g1625
sg338
g1333
sbsS'scene.cpp'
p1711
g312
(g1559
g314
Ntp1712
Rp1713
(dp1714
g1563
g1158
sg1564
(lp1715
g1173
asg338
g1175
sbsS'IwGeomVec4.h'
p1716
g312
(g1559
g314
Ntp1717
Rp1718
(dp1719
g1563
g1271
sg1564
g1625
sg338
g1319
sbsS'dir.h'
p1720
g312
(g1559
g314
Ntp1721
Rp1722
(dp1723
g1563
g1571
sg1564
(lp1724
g1573
aS'stdc headers'
p1725
aS'sys'
p1726
asg338
S'c:/marmalade/7.4/s3e/h/std/sys/dir.h'
p1727
sbsS'locale.h'
p1728
g312
(g1559
g314
Ntp1729
Rp1730
(dp1731
g1563
g1571
sg1564
g1593
sg338
S'c:/marmalade/7.4/s3e/h/std/locale.h'
p1732
sbsS'vector'
p1733
g312
(g1559
g314
Ntp1734
Rp1735
(dp1736
g1563
g1571
sg1564
g1572
sg338
S'c:/marmalade/7.4/s3e/h/std/c++/vector'
p1737
sbsS'IwManaged.h'
p1738
g312
(g1559
g314
Ntp1739
Rp1740
(dp1741
g1563
g1435
sg1564
g1600
sg338
g1456
sbsS's3eCompass.h'
p1742
g312
(g1559
g314
Ntp1743
Rp1744
(dp1745
g1563
g1571
sg1564
g1587
sg338
S'c:/marmalade/7.4/s3e/h/s3eCompass.h'
p1746
sbsS'cderror.h'
p1747
g312
(g1559
g314
Ntp1748
Rp1749
(dp1750
g1563
g1057
sg1564
g1659
sg338
g1070
sbsS'climits'
p1751
g312
(g1559
g314
Ntp1752
Rp1753
(dp1754
g1563
g1571
sg1564
g1572
sg338
S'c:/marmalade/7.4/s3e/h/std/c++/climits'
p1755
sbsS'ipc.h'
p1756
g312
(g1559
g314
Ntp1757
Rp1758
(dp1759
g1563
g1571
sg1564
g1724
sg338
S'c:/marmalade/7.4/s3e/h/std/sys/ipc.h'
p1760
sbsS'jversion.h'
p1761
g312
(g1559
g314
Ntp1762
Rp1763
(dp1764
g1563
g1057
sg1564
g1659
sg338
g1074
sbsS'fnmatch.h'
p1765
g312
(g1559
g314
Ntp1766
Rp1767
(dp1768
g1563
g1571
sg1564
g1593
sg338
S'c:/marmalade/7.4/s3e/h/std/fnmatch.h'
p1769
sbsS'IwGxState.h'
p1770
g312
(g1559
g314
Ntp1771
Rp1772
(dp1773
g1563
g1371
sg1564
g1705
sg338
g1386
sbsS'rope'
p1774
g312
(g1559
g314
Ntp1775
Rp1776
(dp1777
g1563
g1571
sg1564
g1572
sg338
S'c:/marmalade/7.4/s3e/h/std/c++/rope'
p1778
sbsS's3eAudio.h'
p1779
g312
(g1559
g314
Ntp1780
Rp1781
(dp1782
g1563
g1571
sg1564
g1587
sg338
S'c:/marmalade/7.4/s3e/h/s3eAudio.h'
p1783
sbsS's3eSurface.h'
p1784
g312
(g1559
g314
Ntp1785
Rp1786
(dp1787
g1563
g1571
sg1564
g1587
sg338
S'c:/marmalade/7.4/s3e/h/s3eSurface.h'
p1788
sbsS'new'
p1789
g312
(g1559
g314
Ntp1790
Rp1791
(dp1792
g1563
g1571
sg1564
g1572
sg338
S'c:/marmalade/7.4/s3e/h/std/c++/new'
p1793
sbsS's3eWindow.h'
p1794
g312
(g1559
g314
Ntp1795
Rp1796
(dp1797
g1563
g1571
sg1564
(lp1798
g1573
aS'Extensions'
p1799
asg338
S'c:/marmalade/7.4/s3e/h/ext/s3eWindow.h'
p1800
sbsS'IwBuffer.h'
p1801
g312
(g1559
g314
Ntp1802
Rp1803
(dp1804
g1563
g1435
sg1564
g1600
sg338
g1446
sbsS'stdio_streambuf'
p1805
g312
(g1559
g314
Ntp1806
Rp1807
(dp1808
g1563
g1571
sg1564
g1572
sg338
S'c:/marmalade/7.4/s3e/h/std/c++/stdio_streambuf'
p1809
sbsS'IwGeomQuat.h.tpl'
p1810
g312
(g1559
g314
Ntp1811
Rp1812
(dp1813
g1563
g1271
sg1564
g1625
sg338
g1303
sbsS's3eOSExec.h'
p1814
g312
(g1559
g314
Ntp1815
Rp1816
(dp1817
g1563
g1571
sg1564
g1798
sg338
S'c:/marmalade/7.4/s3e/h/ext/s3eOSExec.h'
p1818
sbsS'IwGxTransformSW.h'
p1819
g312
(g1559
g314
Ntp1820
Rp1821
(dp1822
g1563
g1371
sg1564
g1705
sg338
g1408
sbsS'IwGxMetrics.h'
p1823
g312
(g1559
g314
Ntp1824
Rp1825
(dp1826
g1563
g1371
sg1564
g1705
sg338
g1402
sbsS'iwgxfont.config.txt'
p1827
g312
(g1559
g314
Ntp1828
Rp1829
(dp1830
g1563
g1249
sg1564
g1565
sg338
g1252
sbsS'gl2platform.h'
p1831
g312
(g1559
g314
Ntp1832
Rp1833
(dp1834
g1563
g1571
sg1564
(lp1835
g1573
aS'GL'
p1836
aS'GLES 2.0'
p1837
asg338
S'c:/marmalade/7.4/s3e/h/GLES2/gl2platform.h'
p1838
sbsS'IwResManagerClass.h'
p1839
g312
(g1559
g314
Ntp1840
Rp1841
(dp1842
g1563
g1347
sg1564
(lp1843
g1207
ag1343
asg338
g1352
sbsS'queue'
p1844
g312
(g1559
g314
Ntp1845
Rp1846
(dp1847
g1563
g1571
sg1564
g1572
sg338
S'c:/marmalade/7.4/s3e/h/std/c++/queue'
p1848
sbsS'time_1.h'
p1849
g312
(g1559
g314
Ntp1850
Rp1851
(dp1852
g1563
g1571
sg1564
g1724
sg338
S'c:/marmalade/7.4/s3e/h/std/sys/time.h'
p1853
sbsS'Iw2D.h'
p1854
g312
(g1559
g314
Ntp1855
Rp1856
(dp1857
g1563
g1237
sg1564
g1664
sg338
g1240
sbsS'IwGeomVec2.h'
p1858
g312
(g1559
g314
Ntp1859
Rp1860
(dp1861
g1563
g1271
sg1564
g1625
sg338
g1311
sbsS'sendfile.h'
p1862
g312
(g1559
g314
Ntp1863
Rp1864
(dp1865
g1563
g1571
sg1564
g1724
sg338
S'c:/marmalade/7.4/s3e/h/std/sys/sendfile.h'
p1866
sbsS'malloc.h'
p1867
g312
(g1559
g314
Ntp1868
Rp1869
(dp1870
g1563
g1571
sg1564
g1593
sg338
S'c:/marmalade/7.4/s3e/h/std/malloc.h'
p1871
sbsS'stdarg.h'
p1872
g312
(g1559
g314
Ntp1873
Rp1874
(dp1875
g1563
g1571
sg1564
g1593
sg338
S'c:/marmalade/7.4/s3e/h/std/stdarg.h'
p1876
sbsS'IwGeomCore.h'
p1877
g312
(g1559
g314
Ntp1878
Rp1879
(dp1880
g1563
g1271
sg1564
g1625
sg338
g1317
sbsS'Iw2DSceneGraph.h'
p1881
g312
(g1559
g314
Ntp1882
Rp1883
(dp1884
g1563
g1213
sg1564
(lp1885
S"'Marmalade Studio'"
p1886
ag1209
asg338
g1211
sbsS'endian.h'
p1887
g312
(g1559
g314
Ntp1888
Rp1889
(dp1890
g1563
g1571
sg1564
g1593
sg338
S'c:/marmalade/7.4/s3e/h/std/endian.h'
p1891
sbsS'gl3ext.h'
p1892
g312
(g1559
g314
Ntp1893
Rp1894
(dp1895
g1563
g1571
sg1564
(lp1896
g1573
aS'GL'
p1897
aS'GLES 3.0'
p1898
asg338
S'c:/marmalade/7.4/s3e/h/GLES3/gl3ext.h'
p1899
sbsS'glob.h'
p1900
g312
(g1559
g314
Ntp1901
Rp1902
(dp1903
g1563
g1571
sg1564
g1593
sg338
S'c:/marmalade/7.4/s3e/h/std/glob.h'
p1904
sbsS'fstream'
p1905
g312
(g1559
g314
Ntp1906
Rp1907
(dp1908
g1563
g1571
sg1564
g1572
sg338
S'c:/marmalade/7.4/s3e/h/std/c++/fstream'
p1909
sbsS's3eCamera.h'
p1910
g312
(g1559
g314
Ntp1911
Rp1912
(dp1913
g1563
g1571
sg1564
g1587
sg338
S'c:/marmalade/7.4/s3e/h/s3eCamera.h'
p1914
sbsS'jconfig.h'
p1915
g312
(g1559
g314
Ntp1916
Rp1917
(dp1918
g1563
g1057
sg1564
g1659
sg338
g1068
sbsS'memory'
p1919
g312
(g1559
g314
Ntp1920
Rp1921
(dp1922
g1563
g1571
sg1564
g1572
sg338
S'c:/marmalade/7.4/s3e/h/std/c++/memory'
p1923
sbsS'egl.h'
p1924
g312
(g1559
g314
Ntp1925
Rp1926
(dp1927
g1563
g1571
sg1564
(lp1928
g1573
aS'GL'
p1929
aS'EGL'
p1930
asg338
S'c:/marmalade/7.4/s3e/h/EGL/egl.h'
p1931
sbsS'egl_1.h'
p1932
g312
(g1559
g314
Ntp1933
Rp1934
(dp1935
g1563
g1571
sg1564
(lp1936
g1573
aS'GL'
p1937
aS'GLES 1.x'
p1938
asg338
S'c:/marmalade/7.4/s3e/h/GLES/egl.h'
p1939
sbsS'IwMemManagerDL.h'
p1940
g312
(g1559
g314
Ntp1941
Rp1942
(dp1943
g1563
g1435
sg1564
g1600
sg338
g1529
sbsS'deque'
p1944
g312
(g1559
g314
Ntp1945
Rp1946
(dp1947
g1563
g1571
sg1564
g1572
sg338
S'c:/marmalade/7.4/s3e/h/std/c++/deque'
p1948
sbsS'IwString.h'
p1949
g312
(g1559
g314
Ntp1950
Rp1951
(dp1952
g1563
g1435
sg1564
g1600
sg338
g1512
sbsS'cwchar'
p1953
g312
(g1559
g314
Ntp1954
Rp1955
(dp1956
g1563
g1571
sg1564
g1572
sg338
S'c:/marmalade/7.4/s3e/h/std/c++/cwchar'
p1957
sbsS'iwutil.mkf'
p1958
g312
(g1559
g314
Ntp1959
Rp1960
(dp1961
g1563
g1518
sg1564
g1600
sg338
g1516
sbsS'csignal'
p1962
g312
(g1559
g314
Ntp1963
Rp1964
(dp1965
g1563
g1571
sg1564
g1572
sg338
S'c:/marmalade/7.4/s3e/h/std/c++/csignal'
p1966
sbsS'float.h'
p1967
g312
(g1559
g314
Ntp1968
Rp1969
(dp1970
g1563
g1571
sg1564
g1593
sg338
S'c:/marmalade/7.4/s3e/h/std/float.h'
p1971
sbsS'pthread_alloc'
p1972
g312
(g1559
g314
Ntp1973
Rp1974
(dp1975
g1563
g1571
sg1564
g1572
sg338
S'c:/marmalade/7.4/s3e/h/std/c++/pthread_alloc'
p1976
sbsS'getopt.h'
p1977
g312
(g1559
g314
Ntp1978
Rp1979
(dp1980
g1563
g1571
sg1564
g1593
sg338
S'c:/marmalade/7.4/s3e/h/std/getopt.h'
p1981
sbsS'IwOptimiseARM.h'
p1982
g312
(g1559
g314
Ntp1983
Rp1984
(dp1985
g1563
g1435
sg1564
g1600
sg338
g1488
sbsS'times.h'
p1986
g312
(g1559
g314
Ntp1987
Rp1988
(dp1989
g1563
g1571
sg1564
g1724
sg338
S'c:/marmalade/7.4/s3e/h/std/sys/times.h'
p1990
sbsS'IwGeomFSphere.h'
p1991
g312
(g1559
g314
Ntp1992
Rp1993
(dp1994
g1563
g1271
sg1564
g1625
sg338
g1281
sbsS'game.h'
p1995
g312
(g1559
g314
Ntp1996
Rp1997
(dp1998
g1563
g1158
sg1564
(lp1999
g1154
asg338
g1165
sbsS'IwTypes.h'
p2000
g312
(g1559
g314
Ntp2001
Rp2002
(dp2003
g1563
g1435
sg1564
g1600
sg338
g1470
sbsS'unistd.h'
p2004
g312
(g1559
g314
Ntp2005
Rp2006
(dp2007
g1563
g1571
sg1564
g1593
sg338
S'c:/marmalade/7.4/s3e/h/std/unistd.h'
p2008
sbsS'audio.cpp'
p2009
g312
(g1559
g314
Ntp2010
Rp2011
(dp2012
g1563
g1158
sg1564
g1715
sg338
g1181
sbsS's3eCompression.h'
p2013
g312
(g1559
g314
Ntp2014
Rp2015
(dp2016
g1563
g1571
sg1564
g1587
sg338
S'c:/marmalade/7.4/s3e/h/s3eCompression.h'
p2017
sbsS'langinfo.h'
p2018
g312
(g1559
g314
Ntp2019
Rp2020
(dp2021
g1563
g1571
sg1564
g1593
sg338
S'c:/marmalade/7.4/s3e/h/std/langinfo.h'
p2022
sbsS's3edebugHeap.h'
p2023
g312
(g1559
g314
Ntp2024
Rp2025
(dp2026
g1563
g1571
sg1564
g1798
sg338
S'c:/marmalade/7.4/s3e/h/ext/s3edebugHeap.h'
p2027
sbsS'AirplayVersion.h'
p2028
g312
(g1559
g314
Ntp2029
Rp2030
(dp2031
g1563
g1571
sg1564
g1587
sg338
S'c:/marmalade/7.4/s3e/h/AirplayVersion.h'
p2032
sbsS'gl2extimg.h'
p2033
g312
(g1559
g314
Ntp2034
Rp2035
(dp2036
g1563
g1571
sg1564
g1835
sg338
S'c:/marmalade/7.4/s3e/h/GLES2/gl2extimg.h'
p2037
sbsS'app.config.txt'
p2038
g312
(g1559
g314
Ntp2039
Rp2040
(dp2041
g1563
(dp2042
sg1564
g4
sg338
S'e:/Documents/Michiel/Programmeren/Marmalade/MVSStage4/data/app.config.txt'
p2043
sbsS'IwGeomSqrt.h'
p2044
g312
(g1559
g314
Ntp2045
Rp2046
(dp2047
g1563
g1271
sg1564
g1625
sg338
g1341
sbsS'tiniconv_int.h'
p2048
g312
(g1559
g314
Ntp2049
Rp2050
(dp2051
g1563
g1091
sg1564
(lp2052
g1087
asg338
g1089
sbsS'syslog.h'
p2053
g312
(g1559
g314
Ntp2054
Rp2055
(dp2056
g1563
g1571
sg1564
g1593
sg338
S'c:/marmalade/7.4/s3e/h/std/syslog.h'
p2057
sbsS'IwGxFontTypes.h'
p2058
g312
(g1559
g314
Ntp2059
Rp2060
(dp2061
g1563
g1249
sg1564
g1565
sg338
g1256
sbsS'IwGeomFIntersect.h'
p2062
g312
(g1559
g314
Ntp2063
Rp2064
(dp2065
g1563
g1271
sg1564
g1625
sg338
g1272
sbsS'hash_map'
p2066
g312
(g1559
g314
Ntp2067
Rp2068
(dp2069
g1563
g1571
sg1564
g1572
sg338
S'c:/marmalade/7.4/s3e/h/std/c++/hash_map'
p2070
sbsS's3e.mkf'
p2071
g312
(g1559
g314
Ntp2072
Rp2073
(dp2074
g1563
(dp2075
sg1564
g1587
sg338
S'c:/marmalade/7.4/s3e/s3e.mkf'
p2076
sbsS'IwGeomMat2D.h.tpl'
p2077
g312
(g1559
g314
Ntp2078
Rp2079
(dp2080
g1563
g1271
sg1564
g1625
sg338
g1274
sbsS's3eOSReadString.h'
p2081
g312
(g1559
g314
Ntp2082
Rp2083
(dp2084
g1563
g1571
sg1564
g1798
sg338
S'c:/marmalade/7.4/s3e/h/ext/s3eOSReadString.h'
p2085
sbsS'IwSound.h'
p2086
g312
(g1559
g314
Ntp2087
Rp2088
(dp2089
g1563
g1101
sg1564
g1611
sg338
g1137
sbsS'map'
p2090
g312
(g1559
g314
Ntp2091
Rp2092
(dp2093
g1563
g1571
sg1564
g1572
sg338
S'c:/marmalade/7.4/s3e/h/std/c++/map'
p2094
sbsS'iwtween.mkf'
p2095
g312
(g1559
g314
Ntp2096
Rp2097
(dp2098
g1563
g1555
sg1564
(lp2099
g1546
asg338
g1553
sbsS'IwOptimiseSpeed.h'
p2100
g312
(g1559
g314
Ntp2101
Rp2102
(dp2103
g1563
g1435
sg1564
g1600
sg338
g1498
sbsS'ostream'
p2104
g312
(g1559
g314
Ntp2105
Rp2106
(dp2107
g1563
g1571
sg1564
g1572
sg338
S'c:/marmalade/7.4/s3e/h/std/c++/ostream'
p2108
sbsS'msl_string.h'
p2109
g312
(g1559
g314
Ntp2110
Rp2111
(dp2112
g1563
g1571
sg1564
g1572
sg338
S'c:/marmalade/7.4/s3e/h/std/c++/msl_string.h'
p2113
sbsS'select.h'
p2114
g312
(g1559
g314
Ntp2115
Rp2116
(dp2117
g1563
g1571
sg1564
g1724
sg338
S'c:/marmalade/7.4/s3e/h/std/sys/select.h'
p2118
sbsS'zlib.mkf'
p2119
g312
(g1559
g314
Ntp2120
Rp2121
(dp2122
g1563
g1545
sg1564
(lp2123
g1535
asg338
g1543
sbsS'signal.h'
p2124
g312
(g1559
g314
Ntp2125
Rp2126
(dp2127
g1563
g1571
sg1564
g1593
sg338
S'c:/marmalade/7.4/s3e/h/std/signal.h'
p2128
sbsS'sigcontext.h'
p2129
g312
(g1559
g314
Ntp2130
Rp2131
(dp2132
g1563
g1571
sg1564
g1593
sg338
S'c:/marmalade/7.4/s3e/h/std/sigcontext.h'
p2133
sbsS'libpng.mkf'
p2134
g312
(g1559
g314
Ntp2135
Rp2136
(dp2137
g1563
g1051
sg1564
(lp2138
g1040
asg338
g1049
sbsS's3eClipboard.h'
p2139
g312
(g1559
g314
Ntp2140
Rp2141
(dp2142
g1563
g1571
sg1564
g1587
sg338
S'c:/marmalade/7.4/s3e/h/s3eClipboard.h'
p2143
sbsS'IwGxFuncTable.h'
p2144
g312
(g1559
g314
Ntp2145
Rp2146
(dp2147
g1563
g1371
sg1564
g1705
sg338
g1372
sbsS'IwResHandlerGROUP.h'
p2148
g312
(g1559
g314
Ntp2149
Rp2150
(dp2151
g1563
g1347
sg1564
g1843
sg338
g1356
sbsS's3eDebug.h'
p2152
g312
(g1559
g314
Ntp2153
Rp2154
(dp2155
g1563
g1571
sg1564
g1587
sg338
S'c:/marmalade/7.4/s3e/h/s3eDebug.h'
p2156
sbsS'socket.h'
p2157
g312
(g1559
g314
Ntp2158
Rp2159
(dp2160
g1563
g1571
sg1564
g1724
sg338
S'c:/marmalade/7.4/s3e/h/std/sys/socket.h'
p2161
sbsS'glext.h'
p2162
g312
(g1559
g314
Ntp2163
Rp2164
(dp2165
g1563
g1571
sg1564
g1936
sg338
S'c:/marmalade/7.4/s3e/h/GLES/glext.h'
p2166
sbsS'typeinfo.h'
p2167
g312
(g1559
g314
Ntp2168
Rp2169
(dp2170
g1563
g1571
sg1564
g1572
sg338
S'c:/marmalade/7.4/s3e/h/std/c++/typeinfo.h'
p2171
sbsS'typeinfo'
p2172
g312
(g1559
g314
Ntp2173
Rp2174
(dp2175
g1563
g1571
sg1564
g1572
sg338
S'c:/marmalade/7.4/s3e/h/std/c++/typeinfo'
p2176
sbsS'iwsound.config.txt'
p2177
g312
(g1559
g314
Ntp2178
Rp2179
(dp2180
g1563
g1101
sg1564
(lp2181
g1097
ag1110
asg338
g1112
sbsS'fstream.h'
p2182
g312
(g1559
g314
Ntp2183
Rp2184
(dp2185
g1563
g1571
sg1564
g1572
sg338
S'c:/marmalade/7.4/s3e/h/std/c++/fstream.h'
p2186
sbsS'IwGeomMat.h'
p2187
g312
(g1559
g314
Ntp2188
Rp2189
(dp2190
g1563
g1271
sg1564
g1625
sg338
g1307
sbsS's3ePointer.h'
p2191
g312
(g1559
g314
Ntp2192
Rp2193
(dp2194
g1563
g1571
sg1564
g1587
sg338
S'c:/marmalade/7.4/s3e/h/s3ePointer.h'
p2195
sbsS'IwMemBucket.h'
p2196
g312
(g1559
g314
Ntp2197
Rp2198
(dp2199
g1563
g1435
sg1564
g1600
sg338
g1494
sbsS'PVRTexTool.h'
p2200
g312
(g1559
g314
Ntp2201
Rp2202
(dp2203
g1563
g1199
sg1564
(lp2204
g1191
ag1193
asg338
g1205
sbsS's3eGL.h'
p2205
g312
(g1559
g314
Ntp2206
Rp2207
(dp2208
g1563
g1571
sg1564
g1587
sg338
S'c:/marmalade/7.4/s3e/h/s3eGL.h'
p2209
sbsS'IwGeomFVec2.h'
p2210
g312
(g1559
g314
Ntp2211
Rp2212
(dp2213
g1563
g1271
sg1564
g1625
sg338
g1297
sbsS'IwGeomSVec4.h'
p2214
g312
(g1559
g314
Ntp2215
Rp2216
(dp2217
g1563
g1271
sg1564
g1625
sg338
g1295
sbsS'poll.h'
p2218
g312
(g1559
g314
Ntp2219
Rp2220
(dp2221
g1563
g1571
sg1564
g1593
sg338
S'c:/marmalade/7.4/s3e/h/std/poll.h'
p2222
sbsS'IwMatAnim.h'
p2223
g312
(g1559
g314
Ntp2224
Rp2225
(dp2226
g1563
g1371
sg1564
g1705
sg338
g1396
sbsS'IwGeomFVec4.h'
p2227
g312
(g1559
g314
Ntp2228
Rp2229
(dp2230
g1563
g1271
sg1564
g1625
sg338
g1289
sbsS'IwGx.h'
p2231
g312
(g1559
g314
Ntp2232
Rp2233
(dp2234
g1563
g1371
sg1564
g1705
sg338
g1378
sbsS'valarray'
p2235
g312
(g1559
g314
Ntp2236
Rp2237
(dp2238
g1563
g1571
sg1564
g1572
sg338
S'c:/marmalade/7.4/s3e/h/std/c++/valarray'
p2239
sbsS'iosfwd'
p2240
g312
(g1559
g314
Ntp2241
Rp2242
(dp2243
g1563
g1571
sg1564
g1572
sg338
S'c:/marmalade/7.4/s3e/h/std/c++/iosfwd'
p2244
sbsS'gl2.h'
p2245
g312
(g1559
g314
Ntp2246
Rp2247
(dp2248
g1563
g1571
sg1564
g1835
sg338
S'c:/marmalade/7.4/s3e/h/GLES2/gl2.h'
p2249
sbsS'jpegint.h'
p2250
g312
(g1559
g314
Ntp2251
Rp2252
(dp2253
g1563
g1057
sg1564
g1659
sg338
g1080
sbsS'stdiostream.h'
p2254
g312
(g1559
g314
Ntp2255
Rp2256
(dp2257
g1563
g1571
sg1564
g1572
sg338
S'c:/marmalade/7.4/s3e/h/std/c++/stdiostream.h'
p2258
sbsS'mem.h'
p2259
g312
(g1559
g314
Ntp2260
Rp2261
(dp2262
g1563
g1571
sg1564
g1572
sg338
S'c:/marmalade/7.4/s3e/h/std/c++/mem.h'
p2263
sbsS'jerror.h'
p2264
g312
(g1559
g314
Ntp2265
Rp2266
(dp2267
g1563
g1057
sg1564
g1659
sg338
g1055
sbsS'zconf.h'
p2268
g312
(g1559
g314
Ntp2269
Rp2270
(dp2271
g1563
g1540
sg1564
(lp2272
g1535
ag1042
asg338
g1538
sbsS's3e.config.txt'
p2273
g312
(g1559
g314
Ntp2274
Rp2275
(dp2276
g1563
g1571
sg1564
g1587
sg338
S'c:/marmalade/7.4/s3e/s3e.config.txt'
p2277
sbsS'numeric'
p2278
g312
(g1559
g314
Ntp2279
Rp2280
(dp2281
g1563
g1571
sg1564
g1572
sg338
S'c:/marmalade/7.4/s3e/h/std/c++/numeric'
p2282
sbsS'utime.h'
p2283
g312
(g1559
g314
Ntp2284
Rp2285
(dp2286
g1563
g1571
sg1564
g1593
sg338
S'c:/marmalade/7.4/s3e/h/std/utime.h'
p2287
sbsS'jdhuff.h'
p2288
g312
(g1559
g314
Ntp2289
Rp2290
(dp2291
g1563
g1057
sg1564
g1659
sg338
g1078
sbsS'IwResHandlerWAV.cpp'
p2292
g312
(g1559
g314
Ntp2293
Rp2294
(dp2295
g1563
g1101
sg1564
g1611
sg338
g1131
sbsS'un.h'
p2296
g312
(g1559
g314
Ntp2297
Rp2298
(dp2299
g1563
g1571
sg1564
g1724
sg338
S'c:/marmalade/7.4/s3e/h/std/sys/un.h'
p2300
sbsS'IwImage.h'
p2301
g312
(g1559
g314
Ntp2302
Rp2303
(dp2304
g1563
g1435
sg1564
g1600
sg338
g1490
sbsS's3eImagePicker.h'
p2305
g312
(g1559
g314
Ntp2306
Rp2307
(dp2308
g1563
g1571
sg1564
g1798
sg338
S'c:/marmalade/7.4/s3e/h/ext/s3eImagePicker.h'
p2309
sbsS'stdlib.h'
p2310
g312
(g1559
g314
Ntp2311
Rp2312
(dp2313
g1563
g1571
sg1564
g1593
sg338
S'c:/marmalade/7.4/s3e/h/std/stdlib.h'
p2314
sbsS'IwCopyingPtr.h'
p2315
g312
(g1559
g314
Ntp2316
Rp2317
(dp2318
g1563
g1435
sg1564
g1600
sg338
g1440
sbsS'iostream'
p2319
g312
(g1559
g314
Ntp2320
Rp2321
(dp2322
g1563
g1571
sg1564
g1572
sg338
S'c:/marmalade/7.4/s3e/h/std/c++/iostream'
p2323
sbsS'png.h'
p2324
g312
(g1559
g314
Ntp2325
Rp2326
(dp2327
g1563
g1046
sg1564
(lp2328
g1040
ag1042
asg338
g1044
sbsS'stddef.h'
p2329
g312
(g1559
g314
Ntp2330
Rp2331
(dp2332
g1563
g1571
sg1564
g1593
sg338
S'c:/marmalade/7.4/s3e/h/std/stddef.h'
p2333
sbsS'setjmp_win32.h'
p2334
g312
(g1559
g314
Ntp2335
Rp2336
(dp2337
g1563
g1571
sg1564
g1593
sg338
S'c:/marmalade/7.4/s3e/h/std/setjmp_win32.h'
p2338
sbsS'pauseMenu.h'
p2339
g312
(g1559
g314
Ntp2340
Rp2341
(dp2342
g1563
g1158
sg1564
g1999
sg338
g1167
sbsS'IwGxPrint.h'
p2343
g312
(g1559
g314
Ntp2344
Rp2345
(dp2346
g1563
g1371
sg1564
g1705
sg338
g1376
sbsS'iwgx_public.defines.txt'
p2347
g312
(g1559
g314
Ntp2348
Rp2349
(dp2350
g1563
g1371
sg1564
g1705
sg338
g1413
sbsS'streambuf.h'
p2351
g312
(g1559
g314
Ntp2352
Rp2353
(dp2354
g1563
g1571
sg1564
g1572
sg338
S'c:/marmalade/7.4/s3e/h/std/c++/streambuf.h'
p2355
sbsS'resources.cpp'
p2356
g312
(g1559
g314
Ntp2357
Rp2358
(dp2359
g1563
g1158
sg1564
g1715
sg338
g1179
sbsS'IwGeomFPlane.h'
p2360
g312
(g1559
g314
Ntp2361
Rp2362
(dp2363
g1563
g1271
sg1564
g1625
sg338
g1337
sbsS'wchar.h'
p2364
g312
(g1559
g314
Ntp2365
Rp2366
(dp2367
g1563
g1571
sg1564
g1593
sg338
S'c:/marmalade/7.4/s3e/h/std/wchar.h'
p2368
sbsS's3eCameraCapture.h'
p2369
g312
(g1559
g314
Ntp2370
Rp2371
(dp2372
g1563
g1571
sg1564
g1798
sg338
S'c:/marmalade/7.4/s3e/h/ext/s3eCameraCapture.h'
p2373
sbsS'eglext.h'
p2374
g312
(g1559
g314
Ntp2375
Rp2376
(dp2377
g1563
g1571
sg1564
g1928
sg338
S'c:/marmalade/7.4/s3e/h/EGL/eglext.h'
p2378
sbsS'IwResHandlerImage.h'
p2379
g312
(g1559
g314
Ntp2380
Rp2381
(dp2382
g1563
g1347
sg1564
g1843
sg338
g1361
sbsS'strstream.h'
p2383
g312
(g1559
g314
Ntp2384
Rp2385
(dp2386
g1563
g1571
sg1564
g1572
sg338
S'c:/marmalade/7.4/s3e/h/std/c++/strstream.h'
p2387
sbsS'tiniconv.h'
p2388
g312
(g1559
g314
Ntp2389
Rp2390
(dp2391
g1563
g1091
sg1564
g2052
sg338
g1095
sbsS'IwGLExt.h'
p2392
g312
(g1559
g314
Ntp2393
Rp2394
(dp2395
g1563
g1228
sg1564
g1581
sg338
g1231
sbsS'MVSStage4_main.cpp'
p2396
g312
(g1559
g314
Ntp2397
Rp2398
(dp2399
g1563
g1158
sg1564
g1715
sg338
g1187
sbsS'app.icf'
p2400
g312
(g1559
g314
Ntp2401
Rp2402
(dp2403
g1563
(dp2404
sg1564
g4
sg338
S'e:/Documents/Michiel/Programmeren/Marmalade/MVSStage4/data/app.icf'
p2405
sbsS'IwClassFactory.h'
p2406
g312
(g1559
g314
Ntp2407
Rp2408
(dp2409
g1563
g1435
sg1564
g1600
sg338
g1468
sbsS'file.h'
p2410
g312
(g1559
g314
Ntp2411
Rp2412
(dp2413
g1563
g1571
sg1564
g1724
sg338
S'c:/marmalade/7.4/s3e/h/std/sys/file.h'
p2414
sbsS'cstring'
p2415
g312
(g1559
g314
Ntp2416
Rp2417
(dp2418
g1563
g1571
sg1564
g1572
sg338
S'c:/marmalade/7.4/s3e/h/std/c++/cstring'
p2419
sbsS'IwSoundInst.cpp'
p2420
g312
(g1559
g314
Ntp2421
Rp2422
(dp2423
g1563
g1101
sg1564
g1611
sg338
g1143
sbsS'iwutil.config.txt'
p2424
g312
(g1559
g314
Ntp2425
Rp2426
(dp2427
g1563
g1435
sg1564
g1600
sg338
g1502
sbsS's3eSMS.h'
p2428
g312
(g1559
g314
Ntp2429
Rp2430
(dp2431
g1563
g1571
sg1564
g1798
sg338
S'c:/marmalade/7.4/s3e/h/ext/s3eSMS.h'
p2432
sbsS'limits.h'
p2433
g312
(g1559
g314
Ntp2434
Rp2435
(dp2436
g1563
g1571
sg1564
g1593
sg338
S'c:/marmalade/7.4/s3e/h/std/limits.h'
p2437
sbsS'scene.h'
p2438
g312
(g1559
g314
Ntp2439
Rp2440
(dp2441
g1563
g1158
sg1564
g1999
sg338
g1156
sbsS'IwMaterial.h'
p2442
g312
(g1559
g314
Ntp2443
Rp2444
(dp2445
g1563
g1371
sg1564
g1705
sg338
g1392
sbsS'PVRTexTool_interface.cpp'
p2446
g312
(g1559
g314
Ntp2447
Rp2448
(dp2449
g1563
g1199
sg1564
(lp2450
g1191
ag1193
ag1195
asg338
g1197
sbsS'IwGxSurface.h'
p2451
g312
(g1559
g314
Ntp2452
Rp2453
(dp2454
g1563
g1371
sg1564
g1705
sg338
g1419
sbsS's3eSocket.h'
p2455
g312
(g1559
g314
Ntp2456
Rp2457
(dp2458
g1563
g1571
sg1564
g1587
sg338
S'c:/marmalade/7.4/s3e/h/s3eSocket.h'
p2459
sbsS'IwAutoFile.h'
p2460
g312
(g1559
g314
Ntp2461
Rp2462
(dp2463
g1563
g1435
sg1564
g1600
sg338
g1521
sbsS's3eVibra.h'
p2464
g312
(g1559
g314
Ntp2465
Rp2466
(dp2467
g1563
g1571
sg1564
g1587
sg338
S'c:/marmalade/7.4/s3e/h/s3eVibra.h'
p2468
sbsS'poll_1.h'
p2469
g312
(g1559
g314
Ntp2470
Rp2471
(dp2472
g1563
g1571
sg1564
g1724
sg338
S'c:/marmalade/7.4/s3e/h/std/sys/poll.h'
p2473
sbsS's3eThread.h'
p2474
g312
(g1559
g314
Ntp2475
Rp2476
(dp2477
g1563
g1571
sg1564
g1587
sg338
S'c:/marmalade/7.4/s3e/h/s3eThread.h'
p2478
sbsS'ucontext.h'
p2479
g312
(g1559
g314
Ntp2480
Rp2481
(dp2482
g1563
g1571
sg1564
g1593
sg338
S'c:/marmalade/7.4/s3e/h/std/ucontext.h'
p2483
sbsS'time.h'
p2484
g312
(g1559
g314
Ntp2485
Rp2486
(dp2487
g1563
g1571
sg1564
g1593
sg338
S'c:/marmalade/7.4/s3e/h/std/time.h'
p2488
sbsS'jchuff.h'
p2489
g312
(g1559
g314
Ntp2490
Rp2491
(dp2492
g1563
g1057
sg1564
g1659
sg338
g1060
sbsS'IwSoundPCM.cpp'
p2493
g312
(g1559
g314
Ntp2494
Rp2495
(dp2496
g1563
g1101
sg1564
g1611
sg338
g1125
sbsS's3eSoundRecord.h'
p2497
g312
(g1559
g314
Ntp2498
Rp2499
(dp2500
g1563
g1571
sg1564
g1587
sg338
S'c:/marmalade/7.4/s3e/h/s3eSoundRecord.h'
p2501
sbsS'IwFibre.h'
p2502
g312
(g1559
g314
Ntp2503
Rp2504
(dp2505
g1563
g1435
sg1564
g1600
sg338
g1510
sbsS's3eVersion.h'
p2506
g312
(g1559
g314
Ntp2507
Rp2508
(dp2509
g1563
g1571
sg1564
g1587
sg338
S'c:/marmalade/7.4/s3e/h/s3eVersion.h'
p2510
sbsS'input.cpp'
p2511
g312
(g1559
g314
Ntp2512
Rp2513
(dp2514
g1563
g1158
sg1564
g1715
sg338
g1185
sbsS'IwSoundGroup.h'
p2515
g312
(g1559
g314
Ntp2516
Rp2517
(dp2518
g1563
g1101
sg1564
g1611
sg338
g1114
sbsS'IwSoundWAV.h'
p2519
g312
(g1559
g314
Ntp2520
Rp2521
(dp2522
g1563
g1101
sg1564
g1611
sg338
g1102
sbsS'IwGxFontGlyph.h'
p2523
g312
(g1559
g314
Ntp2524
Rp2525
(dp2526
g1563
g1249
sg1564
g1565
sg338
g1250
sbsS's3eTypes.h'
p2527
g312
(g1559
g314
Ntp2528
Rp2529
(dp2530
g1563
g1571
sg1564
g1587
sg338
S'c:/marmalade/7.4/s3e/h/s3eTypes.h'
p2531
sbsS'IwSoundSpec.h'
p2532
g312
(g1559
g314
Ntp2533
Rp2534
(dp2535
g1563
g1101
sg1564
g1611
sg338
g1127
sbsS'signal_2.h'
p2536
g312
(g1559
g314
Ntp2537
Rp2538
(dp2539
g1563
g1571
sg1564
g1572
sg338
S'c:/marmalade/7.4/s3e/h/std/c++/signal.h'
p2540
sbsS'termios.h'
p2541
g312
(g1559
g314
Ntp2542
Rp2543
(dp2544
g1563
g1571
sg1564
g1593
sg338
S'c:/marmalade/7.4/s3e/h/std/termios.h'
p2545
sbsS'iw2dscenegraph.mkf'
p2546
g312
(g1559
g314
Ntp2547
Rp2548
(dp2549
g1563
g1218
sg1564
g1885
sg338
g1216
sbsS'slist'
p2550
g312
(g1559
g314
Ntp2551
Rp2552
(dp2553
g1563
g1571
sg1564
g1572
sg338
S'c:/marmalade/7.4/s3e/h/std/c++/slist'
p2554
sbsS'cstdlib'
p2555
g312
(g1559
g314
Ntp2556
Rp2557
(dp2558
g1563
g1571
sg1564
g1572
sg338
S'c:/marmalade/7.4/s3e/h/std/c++/cstdlib'
p2559
sbsS's3eLocation.h'
p2560
g312
(g1559
g314
Ntp2561
Rp2562
(dp2563
g1563
g1571
sg1564
g1587
sg338
S'c:/marmalade/7.4/s3e/h/s3eLocation.h'
p2564
sbsS'IwMemBucketHelpers.h'
p2565
g312
(g1559
g314
Ntp2566
Rp2567
(dp2568
g1563
g1435
sg1564
g1600
sg338
g1482
sbsS's3eHash.h'
p2569
g312
(g1559
g314
Ntp2570
Rp2571
(dp2572
g1563
g1571
sg1564
g1587
sg338
S'c:/marmalade/7.4/s3e/h/s3eHash.h'
p2573
sbsS'IwSoundGroup.cpp'
p2574
g312
(g1559
g314
Ntp2575
Rp2576
(dp2577
g1563
g1101
sg1564
g1611
sg338
g1121
sbsS'IwGeomFMat.h'
p2578
g312
(g1559
g314
Ntp2579
Rp2580
(dp2581
g1563
g1271
sg1564
g1625
sg338
g1339
sbsS'type_traits.h'
p2582
g312
(g1559
g314
Ntp2583
Rp2584
(dp2585
g1563
g1571
sg1564
g1572
sg338
S'c:/marmalade/7.4/s3e/h/std/c++/type_traits.h'
p2586
sbsS'IwMenu.h'
p2587
g312
(g1559
g314
Ntp2588
Rp2589
(dp2590
g1563
g1435
sg1564
g1600
sg338
g1436
sbsS'IwResHandlerITX.h'
p2591
g312
(g1559
g314
Ntp2592
Rp2593
(dp2594
g1563
g1347
sg1564
g1843
sg338
g1345
sbsS'IwSoundData.h'
p2595
g312
(g1559
g314
Ntp2596
Rp2597
(dp2598
g1563
g1101
sg1564
g1611
sg338
g1141
sbsS'IwArray.h'
p2599
g312
(g1559
g314
Ntp2600
Rp2601
(dp2602
g1563
g1435
sg1564
g1600
sg338
g1500
sbsS'IwUTF8.h'
p2603
g312
(g1559
g314
Ntp2604
Rp2605
(dp2606
g1563
g1435
sg1564
g1600
sg338
g1504
sbsS'math_rvct.h'
p2607
g312
(g1559
g314
Ntp2608
Rp2609
(dp2610
g1563
g1571
sg1564
g1593
sg338
S'c:/marmalade/7.4/s3e/h/std/math_rvct.h'
p2611
sbsS'IwUtil.h'
p2612
g312
(g1559
g314
Ntp2613
Rp2614
(dp2615
g1563
g1435
sg1564
g1600
sg338
g1525
sbsS'IwFColour.h'
p2616
g312
(g1559
g314
Ntp2617
Rp2618
(dp2619
g1563
g1371
sg1564
g1705
sg338
g1382
sbsS'wctype.h'
p2620
g312
(g1559
g314
Ntp2621
Rp2622
(dp2623
g1563
g1571
sg1564
g1593
sg338
S'c:/marmalade/7.4/s3e/h/std/wctype.h'
p2624
sbsS'mainMenu.h'
p2625
g312
(g1559
g314
Ntp2626
Rp2627
(dp2628
g1563
g1158
sg1564
g1999
sg338
g1171
sbsS'cstddef'
p2629
g312
(g1559
g314
Ntp2630
Rp2631
(dp2632
g1563
g1571
sg1564
g1572
sg338
S'c:/marmalade/7.4/s3e/h/std/c++/cstddef'
p2633
sbsS'assert.h'
p2634
g312
(g1559
g314
Ntp2635
Rp2636
(dp2637
g1563
g1571
sg1564
g1593
sg338
S'c:/marmalade/7.4/s3e/h/std/assert.h'
p2638
sbsS'mman.h'
p2639
g312
(g1559
g314
Ntp2640
Rp2641
(dp2642
g1563
g1571
sg1564
g1724
sg338
S'c:/marmalade/7.4/s3e/h/std/sys/mman.h'
p2643
sbsS'IwRandom.h'
p2644
g312
(g1559
g314
Ntp2645
Rp2646
(dp2647
g1563
g1435
sg1564
g1600
sg338
g1448
sbsS'libgen.h'
p2648
g312
(g1559
g314
Ntp2649
Rp2650
(dp2651
g1563
g1571
sg1564
g1593
sg338
S'c:/marmalade/7.4/s3e/h/std/libgen.h'
p2652
sbsS'utsname.h'
p2653
g312
(g1559
g314
Ntp2654
Rp2655
(dp2656
g1563
g1571
sg1564
g1724
sg338
S'c:/marmalade/7.4/s3e/h/std/sys/utsname.h'
p2657
sbsS'wait.h'
p2658
g312
(g1559
g314
Ntp2659
Rp2660
(dp2661
g1563
g1571
sg1564
g1724
sg338
S'c:/marmalade/7.4/s3e/h/std/sys/wait.h'
p2662
sbsS'param.h'
p2663
g312
(g1559
g314
Ntp2664
Rp2665
(dp2666
g1563
g1571
sg1564
g1724
sg338
S'c:/marmalade/7.4/s3e/h/std/sys/param.h'
p2667
sbsS'IwDivide.h'
p2668
g312
(g1559
g314
Ntp2669
Rp2670
(dp2671
g1563
g1435
sg1564
g1600
sg338
g1496
sbsS'Iw2DSceneGraphCore.cpp'
p2672
g312
(g1559
g314
Ntp2673
Rp2674
(dp2675
g1563
g1428
sg1564
(lp2676
S"'Marmalade Studio'"
p2677
ag1421
asg338
g1426
sbsS'IwResManager.h'
p2678
g312
(g1559
g314
Ntp2679
Rp2680
(dp2681
g1563
g1347
sg1564
g1843
sg338
g1350
sbsS'IwSoundManager.h'
p2682
g312
(g1559
g314
Ntp2683
Rp2684
(dp2685
g1563
g1101
sg1564
g1611
sg338
g1119
sbsS'cwctype'
p2686
g312
(g1559
g314
Ntp2687
Rp2688
(dp2689
g1563
g1571
sg1564
g1572
sg338
S'c:/marmalade/7.4/s3e/h/std/c++/cwctype'
p2690
sbsS'set'
p2691
g312
(g1559
g314
Ntp2692
Rp2693
(dp2694
g1563
g1571
sg1564
g1572
sg338
S'c:/marmalade/7.4/s3e/h/std/c++/set'
p2695
sbsS'IwGeomSQuat.h'
p2696
g312
(g1559
g314
Ntp2697
Rp2698
(dp2699
g1563
g1271
sg1564
g1625
sg338
g1315
sbsS'locale'
p2700
g312
(g1559
g314
Ntp2701
Rp2702
(dp2703
g1563
g1571
sg1564
g1572
sg338
S'c:/marmalade/7.4/s3e/h/std/c++/locale'
p2704
sbsS'cstdio'
p2705
g312
(g1559
g314
Ntp2706
Rp2707
(dp2708
g1563
g1571
sg1564
g1572
sg338
S'c:/marmalade/7.4/s3e/h/std/c++/cstdio'
p2709
sbsS'cdjpeg.h'
p2710
g312
(g1559
g314
Ntp2711
Rp2712
(dp2713
g1563
g1057
sg1564
g1659
sg338
g1064
sbsS'audio.h'
p2714
g312
(g1559
g314
Ntp2715
Rp2716
(dp2717
g1563
g1158
sg1564
g1999
sg338
g1163
sbsS'IwList.h'
p2718
g312
(g1559
g314
Ntp2719
Rp2720
(dp2721
g1563
g1435
sg1564
g1600
sg338
g1464
sbsS'pauseMenu.cpp'
p2722
g312
(g1559
g314
Ntp2723
Rp2724
(dp2725
g1563
g1158
sg1564
g1715
sg338
g1183
sbsS'inttypes.h'
p2726
g312
(g1559
g314
Ntp2727
Rp2728
(dp2729
g1563
g1571
sg1564
g1593
sg338
S'c:/marmalade/7.4/s3e/h/std/inttypes.h'
p2730
sbsS'dirent.h'
p2731
g312
(g1559
g314
Ntp2732
Rp2733
(dp2734
g1563
g1571
sg1564
g1593
sg338
S'c:/marmalade/7.4/s3e/h/std/dirent.h'
p2735
sbsS'IwGeomVec3.h'
p2736
g312
(g1559
g314
Ntp2737
Rp2738
(dp2739
g1563
g1271
sg1564
g1625
sg338
g1309
sbsS'transupp.h'
p2740
g312
(g1559
g314
Ntp2741
Rp2742
(dp2743
g1563
g1057
sg1564
g1659
sg338
g1076
sbsS'IwMath.h'
p2744
g312
(g1559
g314
Ntp2745
Rp2746
(dp2747
g1563
g1435
sg1564
g1600
sg338
g1508
sbsS'IwGeomQuat.h'
p2748
g312
(g1559
g314
Ntp2749
Rp2750
(dp2751
g1563
g1271
sg1564
g1625
sg338
g1291
sbsS'glplatform.h'
p2752
g312
(g1559
g314
Ntp2753
Rp2754
(dp2755
g1563
g1571
sg1564
g1936
sg338
S'c:/marmalade/7.4/s3e/h/GLES/glplatform.h'
p2756
sbsS'iwgl.config.txt'
p2757
g312
(g1559
g314
Ntp2758
Rp2759
(dp2760
g1563
g1228
sg1564
g1581
sg338
g1226
sbsS'bitset'
p2761
g312
(g1559
g314
Ntp2762
Rp2763
(dp2764
g1563
g1571
sg1564
g1572
sg338
S'c:/marmalade/7.4/s3e/h/std/c++/bitset'
p2765
sbsS'alloca.h'
p2766
g312
(g1559
g314
Ntp2767
Rp2768
(dp2769
g1563
g1571
sg1564
g1593
sg338
S'c:/marmalade/7.4/s3e/h/std/alloca.h'
p2770
sbsS'IwChar.h'
p2771
g312
(g1559
g314
Ntp2772
Rp2773
(dp2774
g1563
g1435
sg1564
g1600
sg338
g1486
sbsS'IwResHandlerMTL.h'
p2775
g312
(g1559
g314
Ntp2776
Rp2777
(dp2778
g1563
g1371
sg1564
g1705
sg338
g1400
sbsS'IwRuntime.h'
p2779
g312
(g1559
g314
Ntp2780
Rp2781
(dp2782
g1563
g1435
sg1564
g1600
sg338
g1480
sbsS'limits'
p2783
g312
(g1559
g314
Ntp2784
Rp2785
(dp2786
g1563
g1571
sg1564
g1572
sg338
S'c:/marmalade/7.4/s3e/h/std/c++/limits'
p2787
sbsS'IwGeomBBox.h'
p2788
g312
(g1559
g314
Ntp2789
Rp2790
(dp2791
g1563
g1271
sg1564
g1625
sg338
g1321
sbsS's3eContacts.h'
p2792
g312
(g1559
g314
Ntp2793
Rp2794
(dp2795
g1563
g1571
sg1564
g1587
sg338
S'c:/marmalade/7.4/s3e/h/s3eContacts.h'
p2796
sbsS's3eLicense.h'
p2797
g312
(g1559
g314
Ntp2798
Rp2799
(dp2800
g1563
g1571
sg1564
g1587
sg338
S'c:/marmalade/7.4/s3e/h/s3eLicense.h'
p2801
sbsS'iwgx.config.txt'
p2802
g312
(g1559
g314
Ntp2803
Rp2804
(dp2805
g1563
g1371
sg1564
g1705
sg338
g1406
sbsS'IwTextParser.h'
p2806
g312
(g1559
g314
Ntp2807
Rp2808
(dp2809
g1563
g1435
sg1564
g1600
sg338
g1433
sbsS's3eTimer.h'
p2810
g312
(g1559
g314
Ntp2811
Rp2812
(dp2813
g1563
g1571
sg1564
g1587
sg338
S'c:/marmalade/7.4/s3e/h/s3eTimer.h'
p2814
sbsS'IwGeomVec.h'
p2815
g312
(g1559
g314
Ntp2816
Rp2817
(dp2818
g1563
g1271
sg1564
g1625
sg338
g1299
sbsS'IwSerialise.h'
p2819
g312
(g1559
g314
Ntp2820
Rp2821
(dp2822
g1563
g1435
sg1564
g1600
sg338
g1466
sbsS'cstdarg'
p2823
g312
(g1559
g314
Ntp2824
Rp2825
(dp2826
g1563
g1571
sg1564
g1572
sg338
S'c:/marmalade/7.4/s3e/h/std/c++/cstdarg'
p2827
sbsS'gl2ext.h'
p2828
g312
(g1559
g314
Ntp2829
Rp2830
(dp2831
g1563
g1571
sg1564
g1835
sg338
S'c:/marmalade/7.4/s3e/h/GLES2/gl2ext.h'
p2832
sbsS'IwResHandler.h'
p2833
g312
(g1559
g314
Ntp2834
Rp2835
(dp2836
g1563
g1347
sg1564
g1843
sg338
g1363
sbsS's3eSound.h'
p2837
g312
(g1559
g314
Ntp2838
Rp2839
(dp2840
g1563
g1571
sg1564
g1587
sg338
S'c:/marmalade/7.4/s3e/h/s3eSound.h'
p2841
sbsS'IwVariableBitField.h'
p2842
g312
(g1559
g314
Ntp2843
Rp2844
(dp2845
g1563
g1435
sg1564
g1600
sg338
g1531
sbsS'exception.h'
p2846
g312
(g1559
g314
Ntp2847
Rp2848
(dp2849
g1563
g1571
sg1564
g1572
sg338
S'c:/marmalade/7.4/s3e/h/std/c++/exception.h'
p2850
sbsS'iwgeom.config.txt'
p2851
g312
(g1559
g314
Ntp2852
Rp2853
(dp2854
g1563
g1271
sg1564
g1625
sg338
g1269
sbsS'iwgx.mkf'
p2855
g312
(g1559
g314
Ntp2856
Rp2857
(dp2858
g1563
g1412
sg1564
g1705
sg338
g1410
sbsS'gl.h'
p2859
g312
(g1559
g314
Ntp2860
Rp2861
(dp2862
g1563
g1571
sg1564
g1936
sg338
S'c:/marmalade/7.4/s3e/h/GLES/gl.h'
p2863
sbsS'zlib.h'
p2864
g312
(g1559
g314
Ntp2865
Rp2866
(dp2867
g1563
g1540
sg1564
g2272
sg338
g1541
sbsS'temp_defines_release.h'
p2868
g312
(g1559
g314
Ntp2869
Rp2870
(dp2871
g1563
(lp2872
sg1564
(lp2873
S"'generated files'"
p2874
asg338
S'e:/Documents/Michiel/Programmeren/Marmalade/MVSStage4/build_mvsstage4_vc12x/temp_defines_release.h'
p2875
sbsS'iwgl.mkf'
p2876
g312
(g1559
g314
Ntp2877
Rp2878
(dp2879
g1563
g1225
sg1564
g1581
sg338
g1223
sbsS'IwColour.h'
p2880
g312
(g1559
g314
Ntp2881
Rp2882
(dp2883
g1563
g1371
sg1564
g1705
sg338
g1384
sbsS's3eLibrary.h'
p2884
g312
(g1559
g314
Ntp2885
Rp2886
(dp2887
g1563
g1571
sg1564
g1798
sg338
S'c:/marmalade/7.4/s3e/h/ext/s3eLibrary.h'
p2888
sbsS'types.h'
p2889
g312
(g1559
g314
Ntp2890
Rp2891
(dp2892
g1563
g1571
sg1564
g1724
sg338
S'c:/marmalade/7.4/s3e/h/std/sys/types.h'
p2893
sbsS'ifaddrs.h'
p2894
g312
(g1559
g314
Ntp2895
Rp2896
(dp2897
g1563
g1571
sg1564
g1593
sg338
S'c:/marmalade/7.4/s3e/h/std/ifaddrs.h'
p2898
sbsS'strstream'
p2899
g312
(g1559
g314
Ntp2900
Rp2901
(dp2902
g1563
g1571
sg1564
g1572
sg338
S'c:/marmalade/7.4/s3e/h/std/c++/strstream'
p2903
sbsS'IwTween.cpp'
p2904
g312
(g1559
g314
Ntp2905
Rp2906
(dp2907
g1563
g1550
sg1564
g2099
sg338
g1548
sbsS'exception'
p2908
g312
(g1559
g314
Ntp2909
Rp2910
(dp2911
g1563
g1571
sg1564
g1572
sg338
S'c:/marmalade/7.4/s3e/h/std/c++/exception'
p2912
sbsS'rlocks.h'
p2913
g312
(g1559
g314
Ntp2914
Rp2915
(dp2916
g1563
g1571
sg1564
g1572
sg338
S'c:/marmalade/7.4/s3e/h/std/c++/rlocks.h'
p2917
sbsS'ioctl.h'
p2918
g312
(g1559
g314
Ntp2919
Rp2920
(dp2921
g1563
g1571
sg1564
g1724
sg338
S'c:/marmalade/7.4/s3e/h/std/sys/ioctl.h'
p2922
sbsS'sem.h'
p2923
g312
(g1559
g314
Ntp2924
Rp2925
(dp2926
g1563
g1571
sg1564
g1724
sg338
S'c:/marmalade/7.4/s3e/h/std/sys/sem.h'
p2927
sbsS'jinclude.h'
p2928
g312
(g1559
g314
Ntp2929
Rp2930
(dp2931
g1563
g1057
sg1564
g1659
sg338
g1066
sbsS'IwEvent.h'
p2932
g312
(g1559
g314
Ntp2933
Rp2934
(dp2935
g1563
g1435
sg1564
g1600
sg338
g1506
sbsS'IwOptimiseSize.h'
p2936
g312
(g1559
g314
Ntp2937
Rp2938
(dp2939
g1563
g1435
sg1564
g1600
sg338
g1533
sbsS'iwgxfont_public.defines.txt'
p2940
g312
(g1559
g314
Ntp2941
Rp2942
(dp2943
g1563
g1249
sg1564
g1565
sg338
g1247
sbsS'iconv.h'
p2944
g312
(g1559
g314
Ntp2945
Rp2946
(dp2947
g1563
g1571
sg1564
g1593
sg338
S'c:/marmalade/7.4/s3e/h/std/iconv.h'
p2948
sbsS's3eDevice.h'
p2949
g312
(g1559
g314
Ntp2950
Rp2951
(dp2952
g1563
g1571
sg1564
g1587
sg338
S'c:/marmalade/7.4/s3e/h/s3eDevice.h'
p2953
sbsS'IwGeomSphere.h'
p2954
g312
(g1559
g314
Ntp2955
Rp2956
(dp2957
g1563
g1271
sg1564
g1625
sg338
g1329
sbsS'tiniconv.mkf'
p2958
g312
(g1559
g314
Ntp2959
Rp2960
(dp2961
g1563
g1094
sg1564
g2052
sg338
g1092
sbsS'iw2dscenegraph.defines.txt'
p2962
g312
(g1559
g314
Ntp2963
Rp2964
(dp2965
g1563
g1213
sg1564
g1885
sg338
g1219
sbsS'jdct.h'
p2966
g312
(g1559
g314
Ntp2967
Rp2968
(dp2969
g1563
g1057
sg1564
g1659
sg338
g1072
sbsS'cctype'
p2970
g312
(g1559
g314
Ntp2971
Rp2972
(dp2973
g1563
g1571
sg1564
g1572
sg338
S'c:/marmalade/7.4/s3e/h/std/c++/cctype'
p2974
sbsS'IwSoundADPCM.cpp'
p2975
g312
(g1559
g314
Ntp2976
Rp2977
(dp2978
g1563
g1101
sg1564
g1611
sg338
g1123
sbsS's3eConfig.h'
p2979
g312
(g1559
g314
Ntp2980
Rp2981
(dp2982
g1563
g1571
sg1564
g1587
sg338
S'c:/marmalade/7.4/s3e/h/s3eConfig.h'
p2983
sbsS'IwHashString.h'
p2984
g312
(g1559
g314
Ntp2985
Rp2986
(dp2987
g1563
g1435
sg1564
g1600
sg338
g1458
sbsS'stat.h'
p2988
g312
(g1559
g314
Ntp2989
Rp2990
(dp2991
g1563
g1571
sg1564
g1724
sg338
S'c:/marmalade/7.4/s3e/h/std/sys/stat.h'
p2992
sbsS'byteswap.h'
p2993
g312
(g1559
g314
Ntp2994
Rp2995
(dp2996
g1563
g1571
sg1564
g1593
sg338
S'c:/marmalade/7.4/s3e/h/std/byteswap.h'
p2997
sbsS'iwresmanager.mkf'
p2998
g312
(g1559
g314
Ntp2999
Rp3000
(dp3001
g1563
g1360
sg1564
g1843
sg338
g1358
sbsS'IwUtilInitTerm.h'
p3002
g312
(g1559
g314
Ntp3003
Rp3004
(dp3005
g1563
g1435
sg1564
g1600
sg338
g1438
sbsS'pthread_1.h'
p3006
g312
(g1559
g314
Ntp3007
Rp3008
(dp3009
g1563
g1571
sg1564
g1572
sg338
S'c:/marmalade/7.4/s3e/h/std/c++/pthread.h'
p3010
sbsS'iw2d.mkf'
p3011
g312
(g1559
g314
Ntp3012
Rp3013
(dp3014
g1563
g1244
sg1564
g1664
sg338
g1242
sbsS'complex'
p3015
g312
(g1559
g314
Ntp3016
Rp3017
(dp3018
g1563
g1571
sg1564
g1572
sg338
S'c:/marmalade/7.4/s3e/h/std/c++/complex'
p3019
sbsS'game.cpp'
p3020
g312
(g1559
g314
Ntp3021
Rp3022
(dp3023
g1563
g1158
sg1564
g1715
sg338
g1189
sbsS'algorithm'
p3024
g312
(g1559
g314
Ntp3025
Rp3026
(dp3027
g1563
g1571
sg1564
g1572
sg338
S'c:/marmalade/7.4/s3e/h/std/c++/algorithm'
p3028
sbsS's3e.icf'
p3029
g312
(g1559
g314
Ntp3030
Rp3031
(dp3032
g1563
g1571
sg1564
g1587
sg338
S'c:/marmalade/7.4/s3e/s3e.icf'
p3033
sbsS'resources.h'
p3034
g312
(g1559
g314
Ntp3035
Rp3036
(dp3037
g1563
g1158
sg1564
g1999
sg338
g1159
sbsS'IwGxFontState.h'
p3038
g312
(g1559
g314
Ntp3039
Rp3040
(dp3041
g1563
g1249
sg1564
g1565
sg338
g1260
sbsS'marmaladeexampleresources.mkf'
p3042
g312
(g1559
g314
Ntp3043
Rp3044
(dp3045
g1563
g1153
sg1564
(lp3046
g1149
asg338
g1151
sbsS'stdio.h'
p3047
g312
(g1559
g314
Ntp3048
Rp3049
(dp3050
g1563
g1571
sg1564
g1593
sg338
S'c:/marmalade/7.4/s3e/h/std/stdio.h'
p3051
sbsS'jmemsys.h'
p3052
g312
(g1559
g314
Ntp3053
Rp3054
(dp3055
g1563
g1057
sg1564
g1659
sg338
g1058
sbsS'ios'
p3056
g312
(g1559
g314
Ntp3057
Rp3058
(dp3059
g1563
g1571
sg1564
g1572
sg338
S'c:/marmalade/7.4/s3e/h/std/c++/ios'
p3060
sbsS'IwTween.h'
p3061
g312
(g1559
g314
Ntp3062
Rp3063
(dp3064
g1563
g1550
sg1564
g2099
sg338
g1551
sbsS'PVRTexTool.defines.txt'
p3065
g312
(g1559
g314
Ntp3066
Rp3067
(dp3068
g1563
g1199
sg1564
g2450
sg338
g1200
sbsS'stack'
p3069
g312
(g1559
g314
Ntp3070
Rp3071
(dp3072
g1563
g1571
sg1564
g1572
sg338
S'c:/marmalade/7.4/s3e/h/std/c++/stack'
p3073
sbsS'IwSoundParams.h'
p3074
g312
(g1559
g314
Ntp3075
Rp3076
(dp3077
g1563
g1101
sg1564
g1611
sg338
g1135
sbsS'new.h'
p3078
g312
(g1559
g314
Ntp3079
Rp3080
(dp3081
g1563
g1571
sg1564
g1572
sg338
S'c:/marmalade/7.4/s3e/h/std/c++/new.h'
p3082
sbsS's3eEMail.h'
p3083
g312
(g1559
g314
Ntp3084
Rp3085
(dp3086
g1563
g1571
sg1564
g1798
sg338
S'c:/marmalade/7.4/s3e/h/ext/s3eEMail.h'
p3087
sbsS's3eVideo.h'
p3088
g312
(g1559
g314
Ntp3089
Rp3090
(dp3091
g1563
g1571
sg1564
g1587
sg338
S'c:/marmalade/7.4/s3e/h/s3eVideo.h'
p3092
sbsS'pngconf.h'
p3093
g312
(g1559
g314
Ntp3094
Rp3095
(dp3096
g1563
g1046
sg1564
g2328
sg338
g1047
sbsS'pwd.h'
p3097
g312
(g1559
g314
Ntp3098
Rp3099
(dp3100
g1563
g1571
sg1564
g1593
sg338
S'c:/marmalade/7.4/s3e/h/std/pwd.h'
p3101
sbsS'IwOptimiseThumb.h'
p3102
g312
(g1559
g314
Ntp3103
Rp3104
(dp3105
g1563
g1435
sg1564
g1600
sg338
g1523
sbsS'gl3.h'
p3106
g312
(g1559
g314
Ntp3107
Rp3108
(dp3109
g1563
g1571
sg1564
g1896
sg338
S'c:/marmalade/7.4/s3e/h/GLES3/gl3.h'
p3110
sbsS'IwClip.h'
p3111
g312
(g1559
g314
Ntp3112
Rp3113
(dp3114
g1563
g1371
sg1564
g1705
sg338
g1388
sbsS'IwSoundInst.h'
p3115
g312
(g1559
g314
Ntp3116
Rp3117
(dp3118
g1563
g1101
sg1564
g1611
sg338
g1099
sbsS'iwresmanager.config.txt'
p3119
g312
(g1559
g314
Ntp3120
Rp3121
(dp3122
g1563
g1347
sg1564
g1843
sg338
g1365
sbsS'IwGxShaderTechnique.h'
p3123
g312
(g1559
g314
Ntp3124
Rp3125
(dp3126
g1563
g1371
sg1564
g1705
sg338
g1415
sbsS'IwCore.h'
p3127
g312
(g1559
g314
Ntp3128
Rp3129
(dp3130
g1563
g1435
sg1564
g1600
sg338
g1452
sbsS'cfloat'
p3131
g312
(g1559
g314
Ntp3132
Rp3133
(dp3134
g1563
g1571
sg1564
g1572
sg338
S'c:/marmalade/7.4/s3e/h/std/c++/cfloat'
p3135
sbsS'IwGeomMat2D.h'
p3136
g312
(g1559
g314
Ntp3137
Rp3138
(dp3139
g1563
g1271
sg1564
g1625
sg338
g1327
sbsS'IwAllocator.h'
p3140
g312
(g1559
g314
Ntp3141
Rp3142
(dp3143
g1563
g1435
sg1564
g1600
sg338
g1472
sbsS'IwPath.h'
p3144
g312
(g1559
g314
Ntp3145
Rp3146
(dp3147
g1563
g1435
sg1564
g1600
sg338
g1527
sbsS'iwgxfont.mkf'
p3148
g312
(g1559
g314
Ntp3149
Rp3150
(dp3151
g1563
g1266
sg1564
g1565
sg338
g1264
sbsS'IwTexture.h'
p3152
g312
(g1559
g314
Ntp3153
Rp3154
(dp3155
g1563
g1371
sg1564
g1705
sg338
g1380
sbsS'IwGeomVec.h.tpl'
p3156
g312
(g1559
g314
Ntp3157
Rp3158
(dp3159
g1563
g1271
sg1564
g1625
sg338
g1279
sbsS's3eAccelerometer.h'
p3160
g312
(g1559
g314
Ntp3161
Rp3162
(dp3163
g1563
g1571
sg1564
g1587
sg338
S'c:/marmalade/7.4/s3e/h/s3eAccelerometer.h'
p3164
sbsS'setjmp.h'
p3165
g312
(g1559
g314
Ntp3166
Rp3167
(dp3168
g1563
g1571
sg1564
g1593
sg338
S'c:/marmalade/7.4/s3e/h/std/setjmp.h'
p3169
sbsS'IwSoundParams.cpp'
p3170
g312
(g1559
g314
Ntp3171
Rp3172
(dp3173
g1563
g1101
sg1564
g1611
sg338
g1104
sbsS'IwFile.h'
p3174
g312
(g1559
g314
Ntp3175
Rp3176
(dp3177
g1563
g1435
sg1564
g1600
sg338
g1478
sbsS'IwTextParseable.h'
p3178
g312
(g1559
g314
Ntp3179
Rp3180
(dp3181
g1563
g1435
sg1564
g1600
sg338
g1476
sbsS'istream.h'
p3182
g312
(g1559
g314
Ntp3183
Rp3184
(dp3185
g1563
g1571
sg1564
g1572
sg338
S'c:/marmalade/7.4/s3e/h/std/c++/istream.h'
p3186
sbsS'stdint.h'
p3187
g312
(g1559
g314
Ntp3188
Rp3189
(dp3190
g1563
g1571
sg1564
g1593
sg338
S'c:/marmalade/7.4/s3e/h/std/stdint.h'
p3191
sbsS'semaphore.h'
p3192
g312
(g1559
g314
Ntp3193
Rp3194
(dp3195
g1563
g1571
sg1564
g1593
sg338
S'c:/marmalade/7.4/s3e/h/std/semaphore.h'
p3196
sbsS'ctime'
p3197
g312
(g1559
g314
Ntp3198
Rp3199
(dp3200
g1563
g1571
sg1564
g1572
sg338
S'c:/marmalade/7.4/s3e/h/std/c++/ctime'
p3201
sbsS'sstream'
p3202
g312
(g1559
g314
Ntp3203
Rp3204
(dp3205
g1563
g1571
sg1564
g1572
sg338
S'c:/marmalade/7.4/s3e/h/std/c++/sstream'
p3206
sbsS'IwGeomFBBox.h'
p3207
g312
(g1559
g314
Ntp3208
Rp3209
(dp3210
g1563
g1271
sg1564
g1625
sg338
g1293
sbsS'IwDebugPrim.h'
p3211
g312
(g1559
g314
Ntp3212
Rp3213
(dp3214
g1563
g1371
sg1564
g1705
sg338
g1369
sbsS'IwGxFontContainer.h'
p3215
g312
(g1559
g314
Ntp3216
Rp3217
(dp3218
g1563
g1249
sg1564
g1565
sg338
g1262
sbsS'IwGeomSVec3.h'
p3219
g312
(g1559
g314
Ntp3220
Rp3221
(dp3222
g1563
g1271
sg1564
g1625
sg338
g1305
sbsS'iw2dscenegraphcore.mkf'
p3223
g312
(g1559
g314
Ntp3224
Rp3225
(dp3226
g1563
g1425
sg1564
g2676
sg338
g1423
sbsS's3eExt.h'
p3227
g312
(g1559
g314
Ntp3228
Rp3229
(dp3230
g1563
g1571
sg1564
g1587
sg338
S'c:/marmalade/7.4/s3e/h/s3eExt.h'
p3231
sbsS'IwGeomFVec3.h'
p3232
g312
(g1559
g314
Ntp3233
Rp3234
(dp3235
g1563
g1271
sg1564
g1625
sg338
g1331
sbsS'streambuf'
p3236
g312
(g1559
g314
Ntp3237
Rp3238
(dp3239
g1563
g1571
sg1564
g1572
sg338
S'c:/marmalade/7.4/s3e/h/std/c++/streambuf'
p3240
sbsS's3eMetrics.h'
p3241
g312
(g1559
g314
Ntp3242
Rp3243
(dp3244
g1563
g1571
sg1564
g1798
sg338
S'c:/marmalade/7.4/s3e/h/ext/s3eMetrics.h'
p3245
sbsS'IwGxFont.h'
p3246
g312
(g1559
g314
Ntp3247
Rp3248
(dp3249
g1563
g1249
sg1564
g1565
sg338
g1254
sbsS's3eSecureStorage.h'
p3250
g312
(g1559
g314
Ntp3251
Rp3252
(dp3253
g1563
g1571
sg1564
g1587
sg338
S'c:/marmalade/7.4/s3e/h/s3eSecureStorage.h'
p3254
sbsS'string.h'
p3255
g312
(g1559
g314
Ntp3256
Rp3257
(dp3258
g1563
g1571
sg1564
g1593
sg338
S'c:/marmalade/7.4/s3e/h/std/string.h'
p3259
sbsS'IwResource.h'
p3260
g312
(g1559
g314
Ntp3261
Rp3262
(dp3263
g1563
g1435
sg1564
g1600
sg338
g1450
sbsS'IwGeomSVec2.h'
p3264
g312
(g1559
g314
Ntp3265
Rp3266
(dp3267
g1563
g1271
sg1564
g1625
sg338
g1325
sbsS'libjpeg.mkf'
p3268
g312
(g1559
g314
Ntp3269
Rp3270
(dp3271
g1563
g1086
sg1564
(lp3272
g1052
asg338
g1084
sbsS'IwGxDebug.h'
p3273
g312
(g1559
g314
Ntp3274
Rp3275
(dp3276
g1563
g1371
sg1564
g1705
sg338
g1394
sbsS'pthread_types.h'
p3277
g312
(g1559
g314
Ntp3278
Rp3279
(dp3280
g1563
g1571
sg1564
g1593
sg338
S'c:/marmalade/7.4/s3e/h/std/pthread_types.h'
p3281
sbsS'iomanip.h'
p3282
g312
(g1559
g314
Ntp3283
Rp3284
(dp3285
g1563
g1571
sg1564
g1572
sg338
S'c:/marmalade/7.4/s3e/h/std/c++/iomanip.h'
p3286
sbsS'IwKeymap.h'
p3287
g312
(g1559
g314
Ntp3288
Rp3289
(dp3290
g1563
g1435
sg1564
g1600
sg338
g1514
sbsS'IwDebug.h'
p3291
g312
(g1559
g314
Ntp3292
Rp3293
(dp3294
g1563
g1435
sg1564
g1600
sg338
g1442
sbsS's3eIOSBackgroundAudio.h'
p3295
g312
(g1559
g314
Ntp3296
Rp3297
(dp3298
g1563
g1571
sg1564
g1798
sg338
S'c:/marmalade/7.4/s3e/h/ext/s3eIOSBackgroundAudio.h'
p3299
sbsS'IwGeomMenu.h'
p3300
g312
(g1559
g314
Ntp3301
Rp3302
(dp3303
g1563
g1271
sg1564
g1625
sg338
g1285
sbsS'IwDivTable.h'
p3304
g312
(g1559
g314
Ntp3305
Rp3306
(dp3307
g1563
g1435
sg1564
g1600
sg338
g1444
sbsS'ctype.h'
p3308
g312
(g1559
g314
Ntp3309
Rp3310
(dp3311
g1563
g1571
sg1564
g1593
sg338
S'c:/marmalade/7.4/s3e/h/std/ctype.h'
p3312
sbsS'mainMenu.cpp'
p3313
g312
(g1559
g314
Ntp3314
Rp3315
(dp3316
g1563
g1158
sg1564
g1715
sg338
g1177
sbsS'IwResGroup.h'
p3317
g312
(g1559
g314
Ntp3318
Rp3319
(dp3320
g1563
g1347
sg1564
g1843
sg338
g1348
sbsS'signal_1.h'
p3321
g312
(g1559
g314
Ntp3322
Rp3323
(dp3324
g1563
g1571
sg1564
g1724
sg338
S'c:/marmalade/7.4/s3e/h/std/sys/signal.h'
p3325
sbsS'IwSoundData.cpp'
p3326
g312
(g1559
g314
Ntp3327
Rp3328
(dp3329
g1563
g1101
sg1564
g1611
sg338
g1129
sbsS'functional'
p3330
g312
(g1559
g314
Ntp3331
Rp3332
(dp3333
g1563
g1571
sg1564
g1572
sg338
S'c:/marmalade/7.4/s3e/h/std/c++/functional'
p3334
sbsS'shm.h'
p3335
g312
(g1559
g314
Ntp3336
Rp3337
(dp3338
g1563
g1571
sg1564
g1724
sg338
S'c:/marmalade/7.4/s3e/h/std/sys/shm.h'
p3339
sbsS'IwManagedList.h'
p3340
g312
(g1559
g314
Ntp3341
Rp3342
(dp3343
g1563
g1435
sg1564
g1600
sg338
g1462
sbsS'prctl.h'
p3344
g312
(g1559
g314
Ntp3345
Rp3346
(dp3347
g1563
g1571
sg1564
g1724
sg338
S'c:/marmalade/7.4/s3e/h/std/sys/prctl.h'
p3348
sbsS'IwGxStream.h'
p3349
g312
(g1559
g314
Ntp3350
Rp3351
(dp3352
g1563
g1371
sg1564
g1705
sg338
g1398
sbsS'temp_defines_debug.h'
p3353
g312
(g1559
g314
Ntp3354
Rp3355
(dp3356
g1563
(lp3357
sg1564
(lp3358
g2874
asg338
S'e:/Documents/Michiel/Programmeren/Marmalade/MVSStage4/build_mvsstage4_vc12x/temp_defines_debug.h'
p3359
sbsS'utility'
p3360
g312
(g1559
g314
Ntp3361
Rp3362
(dp3363
g1563
g1571
sg1564
g1572
sg338
S'c:/marmalade/7.4/s3e/h/std/c++/utility'
p3364
sbsS'input.h'
p3365
g312
(g1559
g314
Ntp3366
Rp3367
(dp3368
g1563
g1158
sg1564
g1999
sg338
g1161
sbsS'IwGeomLegacy.h'
p3369
g312
(g1559
g314
Ntp3370
Rp3371
(dp3372
g1563
g1271
sg1564
g1625
sg338
g1313
sbsS'IwTPage.h'
p3373
g312
(g1559
g314
Ntp3374
Rp3375
(dp3376
g1563
g1371
sg1564
g1705
sg338
g1390
sbsS'IwResSerialise.h'
p3377
g312
(g1559
g314
Ntp3378
Rp3379
(dp3380
g1563
g1347
sg1564
g1843
sg338
g1354
sbsS's3eCrypto.h'
p3381
g312
(g1559
g314
Ntp3382
Rp3383
(dp3384
g1563
g1571
sg1564
g1587
sg338
S'c:/marmalade/7.4/s3e/h/s3eCrypto.h'
p3385
sbsS's3eKeyboard.h'
p3386
g312
(g1559
g314
Ntp3387
Rp3388
(dp3389
g1563
g1571
sg1564
g1587
sg338
S'c:/marmalade/7.4/s3e/h/s3eKeyboard.h'
p3390
sbsS'fcntl.h'
p3391
g312
(g1559
g314
Ntp3392
Rp3393
(dp3394
g1563
g1571
sg1564
g1593
sg338
S'c:/marmalade/7.4/s3e/h/std/fcntl.h'
p3395
sbsS'Iw2DSceneGraphCore.h'
p3396
g312
(g1559
g314
Ntp3397
Rp3398
(dp3399
g1563
g1428
sg1564
g2676
sg338
g1429
sbsS'memory.h'
p3400
g312
(g1559
g314
Ntp3401
Rp3402
(dp3403
g1563
g1571
sg1564
g1593
sg338
S'c:/marmalade/7.4/s3e/h/std/memory.h'
p3404
sbsS'pthread.h'
p3405
g312
(g1559
g314
Ntp3406
Rp3407
(dp3408
g1563
g1571
sg1564
g1593
sg338
S'c:/marmalade/7.4/s3e/h/std/pthread.h'
p3409
sbsS'IwGeomIntersect.h'
p3410
g312
(g1559
g314
Ntp3411
Rp3412
(dp3413
g1563
g1271
sg1564
g1625
sg338
g1323
sbsS'IwTextParserITX.h'
p3414
g312
(g1559
g314
Ntp3415
Rp3416
(dp3417
g1563
g1435
sg1564
g1600
sg338
g1454
sbsS'IwClip.inl'
p3418
g312
(g1559
g314
Ntp3419
Rp3420
(dp3421
g1563
g1371
sg1564
g1705
sg338
g1374
sbsS'Iw2DSceneGraph.cpp'
p3422
g312
(g1559
g314
Ntp3423
Rp3424
(dp3425
g1563
g1213
sg1564
g1885
sg338
g1214
sbsS'ostream.h'
p3426
g312
(g1559
g314
Ntp3427
Rp3428
(dp3429
g1563
g1571
sg1564
g1572
sg338
S'c:/marmalade/7.4/s3e/h/std/c++/ostream.h'
p3430
sbsS'stl_user_config.h'
p3431
g312
(g1559
g314
Ntp3432
Rp3433
(dp3434
g1563
g1571
sg1564
g1572
sg338
S'c:/marmalade/7.4/s3e/h/std/c++/stl_user_config.h'
p3435
sbsS'IwProfileMenu.h'
p3436
g312
(g1559
g314
Ntp3437
Rp3438
(dp3439
g1563
g1435
sg1564
g1600
sg338
g1460
sbsS'MarmaladeVersion.h'
p3440
g312
(g1559
g314
Ntp3441
Rp3442
(dp3443
g1563
g1571
sg1564
g1587
sg338
S'c:/marmalade/7.4/s3e/h/MarmaladeVersion.h'
p3444
sbsS'IwResHandlerWAV.h'
p3445
g312
(g1559
g314
Ntp3446
Rp3447
(dp3448
g1563
g1101
sg1564
g1611
sg338
g1145
sbsS'gl3platform.h'
p3449
g312
(g1559
g314
Ntp3450
Rp3451
(dp3452
g1563
g1571
sg1564
g1896
sg338
S'c:/marmalade/7.4/s3e/h/GLES3/gl3platform.h'
p3453
sbsS'ios.h'
p3454
g312
(g1559
g314
Ntp3455
Rp3456
(dp3457
g1563
g1571
sg1564
g1572
sg338
S'c:/marmalade/7.4/s3e/h/std/c++/ios.h'
p3458
sbsS'IwImageHelper.h'
p3459
g312
(g1559
g314
Ntp3460
Rp3461
(dp3462
g1563
g1435
sg1564
g1600
sg338
g1492
sbsS'hash_set'
p3463
g312
(g1559
g314
Ntp3464
Rp3465
(dp3466
g1563
g1571
sg1564
g1572
sg338
S'c:/marmalade/7.4/s3e/h/std/c++/hash_set'
p3467
sbsS'IwGeomFQuat.h'
p3468
g312
(g1559
g314
Ntp3469
Rp3470
(dp3471
g1563
g1271
sg1564
g1625
sg338
g1283
sbsS'jmorecfg.h'
p3472
g312
(g1559
g314
Ntp3473
Rp3474
(dp3475
g1563
g1057
sg1564
g1659
sg338
g1082
sbsS'eglplatform.h'
p3476
g312
(g1559
g314
Ntp3477
Rp3478
(dp3479
g1563
g1571
sg1564
g1928
sg338
S'c:/marmalade/7.4/s3e/h/EGL/eglplatform.h'
p3480
sbsS'cmath'
p3481
g312
(g1559
g314
Ntp3482
Rp3483
(dp3484
g1563
g1571
sg1564
g1572
sg338
S'c:/marmalade/7.4/s3e/h/std/c++/cmath'
p3485
sbsS'math_gcc.h'
p3486
g312
(g1559
g314
Ntp3487
Rp3488
(dp3489
g1563
g1571
sg1564
g1593
sg338
S'c:/marmalade/7.4/s3e/h/std/math_gcc.h'
p3490
sbsS's3eMemory.h'
p3491
g312
(g1559
g314
Ntp3492
Rp3493
(dp3494
g1563
g1571
sg1564
g1587
sg338
S'c:/marmalade/7.4/s3e/h/s3eMemory.h'
p3495
sbsS'strings.h'
p3496
g312
(g1559
g314
Ntp3497
Rp3498
(dp3499
g1563
g1571
sg1564
g1593
sg338
S'c:/marmalade/7.4/s3e/h/std/strings.h'
p3500
sbsS's3eFile.h'
p3501
g312
(g1559
g314
Ntp3502
Rp3503
(dp3504
g1563
g1571
sg1564
g1587
sg338
S'c:/marmalade/7.4/s3e/h/s3eFile.h'
p3505
sbsS'IwGxTypes.h'
p3506
g312
(g1559
g314
Ntp3507
Rp3508
(dp3509
g1563
g1371
sg1564
g1705
sg338
g1417
sbsS'cerrno'
p3510
g312
(g1559
g314
Ntp3511
Rp3512
(dp3513
g1563
g1571
sg1564
g1572
sg338
S'c:/marmalade/7.4/s3e/h/std/c++/cerrno'
p3514
sbsS'IwSoundManager.cpp'
p3515
g312
(g1559
g314
Ntp3516
Rp3517
(dp3518
g1563
g1101
sg1564
g1611
sg338
g1106
sbsS'main.h'
p3519
g312
(g1559
g314
Ntp3520
Rp3521
(dp3522
g1563
g1158
sg1564
g1999
sg338
g1169
sbsS'soundengine.mkf'
p3523
g312
(g1559
g314
Ntp3524
Rp3525
(dp3526
g1563
g1118
sg1564
g1611
sg338
g1116
sbsS'resource.h'
p3527
g312
(g1559
g314
Ntp3528
Rp3529
(dp3530
g1563
g1571
sg1564
g1724
sg338
S'c:/marmalade/7.4/s3e/h/std/sys/resource.h'
p3531
sbsS'clocale'
p3532
g312
(g1559
g314
Ntp3533
Rp3534
(dp3535
g1563
g1571
sg1564
g1572
sg338
S'c:/marmalade/7.4/s3e/h/std/c++/clocale'
p3536
sbsS'pvrtextool.mkf'
p3537
g312
(g1559
g314
Ntp3538
Rp3539
(dp3540
g1563
g1204
sg1564
g2204
sg338
g1202
sbsS'csetjmp'
p3541
g312
(g1559
g314
Ntp3542
Rp3543
(dp3544
g1563
g1571
sg1564
g1572
sg338
S'c:/marmalade/7.4/s3e/h/std/c++/csetjmp'
p3545
sbsS'netdb.h'
p3546
g312
(g1559
g314
Ntp3547
Rp3548
(dp3549
g1563
g1571
sg1564
g1593
sg338
S'c:/marmalade/7.4/s3e/h/std/netdb.h'
p3550
sbsS's3eAndroidJNI.h'
p3551
g312
(g1559
g314
Ntp3552
Rp3553
(dp3554
g1563
g1571
sg1564
g1798
sg338
S'c:/marmalade/7.4/s3e/h/ext/s3eAndroidJNI.h'
p3555
sbsS'stdexcept'
p3556
g312
(g1559
g314
Ntp3557
Rp3558
(dp3559
g1563
g1571
sg1564
g1572
sg338
S'c:/marmalade/7.4/s3e/h/std/c++/stdexcept'
p3560
sbsS'math.h'
p3561
g312
(g1559
g314
Ntp3562
Rp3563
(dp3564
g1563
g1571
sg1564
g1593
sg338
S'c:/marmalade/7.4/s3e/h/std/math.h'
p3565
sbsS'stdbool.h'
p3566
g312
(g1559
g314
Ntp3567
Rp3568
(dp3569
g1563
g1571
sg1564
g1593
sg338
S'c:/marmalade/7.4/s3e/h/std/stdbool.h'
p3570
sbsS'uio.h'
p3571
g312
(g1559
g314
Ntp3572
Rp3573
(dp3574
g1563
g1571
sg1564
g1724
sg338
S'c:/marmalade/7.4/s3e/h/std/sys/uio.h'
p3575
sbsS'IwUncopyable.h'
p3576
g312
(g1559
g314
Ntp3577
Rp3578
(dp3579
g1563
g1435
sg1564
g1600
sg338
g1484
sbssS'juice_build_type'
p3580
g4
sS'tests'
p3581
(lp3582
sS'project_name'
p3583
g320
sS'root_file'
p3584
g122
sS'current_root'
p3585
S'e:/Documents/Michiel/Programmeren/Marmalade/MVSStage4'
p3586
sS'dependencies'
p3587
(lp3588
sS'include_paths'
p3589
(lp3590
S'e:/Documents/Michiel/Programmeren/Marmalade/MVSStage4/include'
p3591
aS'c:/marmalade/7.4/modules/iw2d/h'
p3592
aS'c:/marmalade/7.4/modules/iwgx/h'
p3593
aS'c:/marmalade/7.4/modules/iwgl/h'
p3594
aS'c:/marmalade/7.4/modules/iwutil/h'
p3595
aS'c:/marmalade/7.4/modules/third_party/libjpeg/h'
p3596
aS'c:/marmalade/7.4/modules/third_party/zlib/h'
p3597
aS'c:/marmalade/7.4/modules/third_party/libpng/h'
p3598
aS'c:/marmalade/7.4/modules/iwgeom/h'
p3599
aS'c:/marmalade/7.4/modules/iwresmanager/h'
p3600
aS'c:/marmalade/7.4/extensions/pvrtextool/h'
p3601
aS'c:/marmalade/7.4/modules/iwgxfont/h'
p3602
aS'c:/marmalade/7.4/modules/third_party/tiniconv/source'
p3603
aS'c:/marmalade/7.4/modules/iw2dscenegraph/h'
p3604
aS'c:/marmalade/7.4/modules/iw2dscenegraphcore/h'
p3605
aS'c:/marmalade/7.4/modules/iwtween/h'
p3606
aS'c:/marmalade/7.4/examples/gametutorial/cpp/modules/soundengine/h'
p3607
aS'c:/marmalade/7.4/examples/gametutorial/cpp/modules/soundengine/source'
p3608
aS'c:/marmalade/7.4/s3e/h'
p3609
aS'c:/marmalade/7.4/s3e/h/ext'
p3610
aS'c:/marmalade/7.4/s3e/h/std'
p3611
aS'c:/marmalade/7.4/s3e/h/std/c++'
p3612
aS'c:/marmalade/7.4/s3e/h/ext_legacy'
p3613
aS'c:/marmalade/7.4/s3e/h/legacy'
p3614
asS'weak_frameworks'
p3615
(lp3616
sS'extprojects'
p3617
(dp3618
sg580
(dp3619
g574
(lp3620
(S'e:/Documents/Michiel/Programmeren/Marmalade/MVSStage4/data/audio'
p3621
S'audio'
p3622
I0
tp3623
a(S'e:/Documents/Michiel/Programmeren/Marmalade/MVSStage4/data/textures'
p3624
S'textures'
p3625
I0
tp3626
a(S'e:/Documents/Michiel/Programmeren/Marmalade/MVSStage4/data-ram/data-gles1,e:/Documents/Michiel/Programmeren/Marmalade/MVSStage4/data'
p3627
S'.'
p3628
I0
tp3629
assS'macro_types'
p3630
(dp3631
g511
I1
sg512
I0
sg513
I0
sg514
I0
sg516
I0
sg517
I0
sg518
I0
sg519
I0
sg520
I0
sg522
I0
sg523
I0
sg524
I0
sg525
I0
sg526
I0
sg528
I0
sg530
I0
sg531
I0
sg532
I0
sg533
I0
sg534
I0
sg535
I0
sg536
I0
sg537
I1
sg538
I0
sg539
I0
sg540
I0
sg541
I0
sg542
I01
sg543
I1
sg544
I0
sg545
I0
sg546
I0
sg547
I0
sg548
I0
sg549
I0
sg550
I0
ssS'commands'
p3632
(lp3633
sg582
(g1033
S'VC12X'
p3634
S'X86ARM'
p3635
tp3636
sS'build_libs'
p3637
(dp3638
sg584
g0
sS'frameworks'
p3639
(lp3640
sS'environ'
p3641
(dp3642
sS'target_name_debug'
p3643
g320
sS'builders'
p3644
(dp3645
g574
(dp3646
S'.S'
p3647
(dp3648
S'rvct'
p3649
(lp3650
S'.obj'
p3651
aS'echo ARM Assembling(RVCT) ${SOURCE}...'
p3652
aS'c:/marmalade/7.4/s3e\\rvct\\bin\\armasm -o ${TARGET} ${SOURCE}'
p3653
asg434
(lp3654
g3651
aS'echo ARM Assembling(GCC) ${SOURCE}...'
p3655
aS'c:/marmalade/7.4/s3e\\gcc\\bin\\arm-none-eabi-gcc -c -o ${TARGET} ${SOURCE}'
p3656
asS'ppu'
p3657
(lp3658
S'.a'
p3659
aS'echo PPU Assembling(SNC) ${SOURCE}...'
p3660
aS'c:/marmalade/7.4/s3e\\rvct\\bin\\armasm -o ${TARGET} ${SOURCE}'
p3661
assS'.s'
p3662
g3648
sS'.vp'
p3663
(lp3664
NaS'"C:/Marmalade/7.4/s3e/python/python.exe" "c:/marmalade/7.4/modules/iwgx/tools/compile_shaders.py" ${SOURCE}'
p3665
asssS'extproject_names'
p3666
(lp3667
sbtp3668
.